
libhello.so:     file format elf32-littlearm


Disassembly of section .init:

00004ef4 <_init>:
    4ef4:	e92d4008 	push	{r3, lr}
    4ef8:	eb00015b 	bl	546c <call_weak_fn>
    4efc:	e8bd8008 	pop	{r3, pc}

Disassembly of section .plt:

00004f00 <.plt>:
    4f00:	e52de004 	push	{lr}		; (str lr, [sp, #-4]!)
    4f04:	e59fe004 	ldr	lr, [pc, #4]	; 4f10 <.plt+0x10>
    4f08:	e08fe00e 	add	lr, pc, lr
    4f0c:	e5bef008 	ldr	pc, [lr, #8]!
    4f10:	00012e64 	andeq	r2, r1, r4, ror #28

00004f14 <_ZNSt8functionIFvPKcEE4swapERS3_@plt>:
    4f14:	e28fc600 	add	ip, pc, #0, 12
    4f18:	e28cca12 	add	ip, ip, #73728	; 0x12000
    4f1c:	e5bcfe64 	ldr	pc, [ip, #3684]!	; 0xe64

00004f20 <_ZNSt14__shared_countILN9__gnu_cxx12_Lock_policyE2EEC1IPKcSt8functionIFvS5_EEEET_T0_@plt>:
    4f20:	e28fc600 	add	ip, pc, #0, 12
    4f24:	e28cca12 	add	ip, ip, #73728	; 0x12000
    4f28:	e5bcfe5c 	ldr	pc, [ip, #3676]!	; 0xe5c

00004f2c <_ZN7JNIEnv_12NewStringUTFEPKc@plt>:
    4f2c:	e28fc600 	add	ip, pc, #0, 12
    4f30:	e28cca12 	add	ip, ip, #73728	; 0x12000
    4f34:	e5bcfe54 	ldr	pc, [ip, #3668]!	; 0xe54

00004f38 <_ZNSt9_Any_data9_M_accessEv@plt>:
    4f38:	e28fc600 	add	ip, pc, #0, 12
    4f3c:	e28cca12 	add	ip, ip, #73728	; 0x12000
    4f40:	e5bcfe4c 	ldr	pc, [ip, #3660]!	; 0xe4c

00004f44 <_ZNSt19_Sp_counted_deleterIPKcSt8functionIFvS1_EESaIvELN9__gnu_cxx12_Lock_policyE2EE5_ImplD1Ev@plt>:
    4f44:	e28fc600 	add	ip, pc, #0, 12
    4f48:	e28cca12 	add	ip, ip, #73728	; 0x12000
    4f4c:	e5bcfe44 	ldr	pc, [ip, #3652]!	; 0xe44

00004f50 <_ZNSt14_Sp_ebo_helperILi1ESaIvELb1EEC2ERKS0_@plt>:
    4f50:	e28fc600 	add	ip, pc, #0, 12
    4f54:	e28cca12 	add	ip, ip, #73728	; 0x12000
    4f58:	e5bcfe3c 	ldr	pc, [ip, #3644]!	; 0xe3c

00004f5c <_ZNSt11_Tuple_implILj0EIPKc15jstring_deleterEE7_M_headERS3_@plt>:
    4f5c:	e28fc600 	add	ip, pc, #0, 12
    4f60:	e28cca12 	add	ip, ip, #73728	; 0x12000
    4f64:	e5bcfe34 	ldr	pc, [ip, #3636]!	; 0xe34

00004f68 <_ZNSt31_Maybe_unary_or_binary_functionIvIPKcEEC2Ev@plt>:
    4f68:	e28fc600 	add	ip, pc, #0, 12
    4f6c:	e28cca12 	add	ip, ip, #73728	; 0x12000
    4f70:	e5bcfe2c 	ldr	pc, [ip, #3628]!	; 0xe2c

00004f74 <_ZNSt11_Tuple_implILj1EI15jstring_deleterEEC2ERKS0_@plt>:
    4f74:	e28fc600 	add	ip, pc, #0, 12
    4f78:	e28cca12 	add	ip, ip, #73728	; 0x12000
    4f7c:	e5bcfe24 	ldr	pc, [ip, #3620]!	; 0xe24

00004f80 <_ZN9__gnu_cxx13new_allocatorISt19_Sp_counted_deleterIPKcSt8functionIFvS3_EESaIvELNS_12_Lock_policyE2EEE7destroyIS9_EEvPT_@plt>:
    4f80:	e28fc600 	add	ip, pc, #0, 12
    4f84:	e28cca12 	add	ip, ip, #73728	; 0x12000
    4f88:	e5bcfe1c 	ldr	pc, [ip, #3612]!	; 0xe1c

00004f8c <_ZNKSt8functionIFvPKcEEclES1_@plt>:
    4f8c:	e28fc600 	add	ip, pc, #0, 12
    4f90:	e28cca12 	add	ip, ip, #73728	; 0x12000
    4f94:	e5bcfe14 	ldr	pc, [ip, #3604]!	; 0xe14

00004f98 <_ZN9__gnu_cxx13new_allocatorISt19_Sp_counted_deleterIPKcSt8functionIFvS3_EESaIvELNS_12_Lock_policyE2EEE9constructIS9_IRS3_S6_S7_EEEvPT_DpOT0_@plt>:
    4f98:	e28fc600 	add	ip, pc, #0, 12
    4f9c:	e28cca12 	add	ip, ip, #73728	; 0x12000
    4fa0:	e5bcfe0c 	ldr	pc, [ip, #3596]!	; 0xe0c

00004fa4 <_ZSt4moveIRSaIvEEONSt16remove_referenceIT_E4typeEOS3_@plt>:
    4fa4:	e28fc600 	add	ip, pc, #0, 12
    4fa8:	e28cca12 	add	ip, ip, #73728	; 0x12000
    4fac:	e5bcfe04 	ldr	pc, [ip, #3588]!	; 0xe04

00004fb0 <_Z6DoIncri@plt>:
    4fb0:	e28fc600 	add	ip, pc, #0, 12
    4fb4:	e28cca12 	add	ip, ip, #73728	; 0x12000
    4fb8:	e5bcfdfc 	ldr	pc, [ip, #3580]!	; 0xdfc

00004fbc <_ZNSt11_Tuple_implILj2EIEEC2Ev@plt>:
    4fbc:	e28fc600 	add	ip, pc, #0, 12
    4fc0:	e28cca12 	add	ip, ip, #73728	; 0x12000
    4fc4:	e5bcfdf4 	ldr	pc, [ip, #3572]!	; 0xdf4

00004fc8 <_ZNSt10_Head_baseILj1E15jstring_deleterLb0EEC2ERKS0_@plt>:
    4fc8:	e28fc600 	add	ip, pc, #0, 12
    4fcc:	e28cca12 	add	ip, ip, #73728	; 0x12000
    4fd0:	e5bcfdec 	ldr	pc, [ip, #3564]!	; 0xdec

00004fd4 <_ZNSt9_Any_data9_M_accessIPKSt9type_infoEERT_v@plt>:
    4fd4:	e28fc600 	add	ip, pc, #0, 12
    4fd8:	e28cca12 	add	ip, ip, #73728	; 0x12000
    4fdc:	e5bcfde4 	ldr	pc, [ip, #3556]!	; 0xde4

00004fe0 <_ZNSt11_Mutex_baseILN9__gnu_cxx12_Lock_policyE2EEC2Ev@plt>:
    4fe0:	e28fc600 	add	ip, pc, #0, 12
    4fe4:	e28cca12 	add	ip, ip, #73728	; 0x12000
    4fe8:	e5bcfddc 	ldr	pc, [ip, #3548]!	; 0xddc

00004fec <_ZSt32__enable_shared_from_this_helperILN9__gnu_cxx12_Lock_policyE2EEvRKSt14__shared_countIXT_EEz@plt>:
    4fec:	e28fc600 	add	ip, pc, #0, 12
    4ff0:	e28cca12 	add	ip, ip, #73728	; 0x12000
    4ff4:	e5bcfdd4 	ldr	pc, [ip, #3540]!	; 0xdd4

00004ff8 <_ZNSt16allocator_traitsISaISt19_Sp_counted_deleterIPKcSt8functionIFvS2_EESaIvELN9__gnu_cxx12_Lock_policyE2EEEE10deallocateERSA_PS9_j@plt>:
    4ff8:	e28fc600 	add	ip, pc, #0, 12
    4ffc:	e28cca12 	add	ip, ip, #73728	; 0x12000
    5000:	e5bcfdcc 	ldr	pc, [ip, #3532]!	; 0xdcc

00005004 <_ZNSt11_Tuple_implILj0EIPKc15jstring_deleterEE7_M_headERKS3_@plt>:
    5004:	e28fc600 	add	ip, pc, #0, 12
    5008:	e28cca12 	add	ip, ip, #73728	; 0x12000
    500c:	e5bcfdc4 	ldr	pc, [ip, #3524]!	; 0xdc4

00005010 <__gmon_start__@plt>:
    5010:	e28fc600 	add	ip, pc, #0, 12
    5014:	e28cca12 	add	ip, ip, #73728	; 0x12000
    5018:	e5bcfdbc 	ldr	pc, [ip, #3516]!	; 0xdbc

0000501c <_ZNKSt9_Any_data9_M_accessEv@plt>:
    501c:	e28fc600 	add	ip, pc, #0, 12
    5020:	e28cca12 	add	ip, ip, #73728	; 0x12000
    5024:	e5bcfdb4 	ldr	pc, [ip, #3508]!	; 0xdb4

00005028 <_ZSt12__get_helperILj0EPKcI15jstring_deleterEENSt9__add_refIT0_E4typeERSt11_Tuple_implIXT_EIS4_DpT1_EE@plt>:
    5028:	e28fc600 	add	ip, pc, #0, 12
    502c:	e28cca12 	add	ip, ip, #73728	; 0x12000
    5030:	e5bcfdac 	ldr	pc, [ip, #3500]!	; 0xdac

00005034 <_ZNSt10_Head_baseILj0EPKcLb0EE7_M_headERKS2_@plt>:
    5034:	e28fc600 	add	ip, pc, #0, 12
    5038:	e28cca12 	add	ip, ip, #73728	; 0x12000
    503c:	e5bcfda4 	ldr	pc, [ip, #3492]!	; 0xda4

00005040 <_ZdlPv@plt>:
    5040:	e28fc600 	add	ip, pc, #0, 12
    5044:	e28cca12 	add	ip, ip, #73728	; 0x12000
    5048:	e5bcfd9c 	ldr	pc, [ip, #3484]!	; 0xd9c

0000504c <_ZNSt19_Sp_counted_deleterIPKcSt8functionIFvS1_EESaIvELN9__gnu_cxx12_Lock_policyE2EEC1ES1_S4_RKS5_@plt>:
    504c:	e28fc600 	add	ip, pc, #0, 12
    5050:	e28cca12 	add	ip, ip, #73728	; 0x12000
    5054:	e5bcfd94 	ldr	pc, [ip, #3476]!	; 0xd94

00005058 <_ZSt4swapISt9_Any_dataEvRT_S2_@plt>:
    5058:	e28fc600 	add	ip, pc, #0, 12
    505c:	e28cca12 	add	ip, ip, #73728	; 0x12000
    5060:	e5bcfd8c 	ldr	pc, [ip, #3468]!	; 0xd8c

00005064 <_ZNSt19_Sp_counted_deleterIPKcSt8functionIFvS1_EESaIvELN9__gnu_cxx12_Lock_policyE2EE5_Impl8_M_allocEv@plt>:
    5064:	e28fc600 	add	ip, pc, #0, 12
    5068:	e28cca12 	add	ip, ip, #73728	; 0x12000
    506c:	e5bcfd84 	ldr	pc, [ip, #3460]!	; 0xd84

00005070 <__cxa_rethrow@plt>:
    5070:	e28fc600 	add	ip, pc, #0, 12
    5074:	e28cca12 	add	ip, ip, #73728	; 0x12000
    5078:	e5bcfd7c 	ldr	pc, [ip, #3452]!	; 0xd7c

0000507c <_ZNSt8ios_base4InitC1Ev@plt>:
    507c:	e28fc600 	add	ip, pc, #0, 12
    5080:	e28cca12 	add	ip, ip, #73728	; 0x12000
    5084:	e5bcfd74 	ldr	pc, [ip, #3444]!	; 0xd74

00005088 <_ZN15jstring_deleterclEPKc@plt>:
    5088:	e28fc600 	add	ip, pc, #0, 12
    508c:	e28cca12 	add	ip, ip, #73728	; 0x12000
    5090:	e5bcfd6c 	ldr	pc, [ip, #3436]!	; 0xd6c

00005094 <_ZNSaISt19_Sp_counted_deleterIPKcSt8functionIFvS1_EESaIvELN9__gnu_cxx12_Lock_policyE2EEEC1IvEERKSaIT_E@plt>:
    5094:	e28fc600 	add	ip, pc, #0, 12
    5098:	e28cca12 	add	ip, ip, #73728	; 0x12000
    509c:	e5bcfd64 	ldr	pc, [ip, #3428]!	; 0xd64

000050a0 <_ZNSt16_Sp_counted_baseILN9__gnu_cxx12_Lock_policyE2EEC2Ev@plt>:
    50a0:	e28fc600 	add	ip, pc, #0, 12
    50a4:	e28cca12 	add	ip, ip, #73728	; 0x12000
    50a8:	e5bcfd5c 	ldr	pc, [ip, #3420]!	; 0xd5c

000050ac <_ZN9__gnu_cxx13new_allocatorISt19_Sp_counted_deleterIPKcSt8functionIFvS3_EESaIvELNS_12_Lock_policyE2EEEC2Ev@plt>:
    50ac:	e28fc600 	add	ip, pc, #0, 12
    50b0:	e28cca12 	add	ip, ip, #73728	; 0x12000
    50b4:	e5bcfd54 	ldr	pc, [ip, #3412]!	; 0xd54

000050b8 <_ZNSt11_Tuple_implILj0EIPKc15jstring_deleterEEC2IRS1_IRKS2_EvEEOT_DpOT0_@plt>:
    50b8:	e28fc600 	add	ip, pc, #0, 12
    50bc:	e28cca12 	add	ip, ip, #73728	; 0x12000
    50c0:	e5bcfd4c 	ldr	pc, [ip, #3404]!	; 0xd4c

000050c4 <_ZNSt14_Sp_ebo_helperILi0ESt8functionIFvPKcEELb0EE6_S_getERS5_@plt>:
    50c4:	e28fc600 	add	ip, pc, #0, 12
    50c8:	e28cca12 	add	ip, ip, #73728	; 0x12000
    50cc:	e5bcfd44 	ldr	pc, [ip, #3396]!	; 0xd44

000050d0 <memset@plt>:
    50d0:	e28fc600 	add	ip, pc, #0, 12
    50d4:	e28cca12 	add	ip, ip, #73728	; 0x12000
    50d8:	e5bcfd3c 	ldr	pc, [ip, #3388]!	; 0xd3c

000050dc <__cxa_end_cleanup@plt>:
    50dc:	e28fc600 	add	ip, pc, #0, 12
    50e0:	e28cca12 	add	ip, ip, #73728	; 0x12000
    50e4:	e5bcfd34 	ldr	pc, [ip, #3380]!	; 0xd34

000050e8 <_ZSt4swapIPFvRKSt9_Any_dataPKcEEvRT_S8_@plt>:
    50e8:	e28fc600 	add	ip, pc, #0, 12
    50ec:	e28cca12 	add	ip, ip, #73728	; 0x12000
    50f0:	e5bcfd2c 	ldr	pc, [ip, #3372]!	; 0xd2c

000050f4 <_ZStlsISt11char_traitsIcEERSt13basic_ostreamIcT_ES5_PKc@plt>:
    50f4:	e28fc600 	add	ip, pc, #0, 12
    50f8:	e28cca12 	add	ip, ip, #73728	; 0x12000
    50fc:	e5bcfd24 	ldr	pc, [ip, #3364]!	; 0xd24

00005100 <_ZSt4moveIRPFvRKSt9_Any_dataPKcEEONSt16remove_referenceIT_E4typeEOS9_@plt>:
    5100:	e28fc600 	add	ip, pc, #0, 12
    5104:	e28cca12 	add	ip, ip, #73728	; 0x12000
    5108:	e5bcfd1c 	ldr	pc, [ip, #3356]!	; 0xd1c

0000510c <_ZnwjPv@plt>:
    510c:	e28fc600 	add	ip, pc, #0, 12
    5110:	e28cca12 	add	ip, ip, #73728	; 0x12000
    5114:	e5bcfd14 	ldr	pc, [ip, #3348]!	; 0xd14

00005118 <_ZNSt19_Sp_counted_deleterIPKcSt8functionIFvS1_EESaIvELN9__gnu_cxx12_Lock_policyE2EED1Ev@plt>:
    5118:	e28fc600 	add	ip, pc, #0, 12
    511c:	e28cca12 	add	ip, ip, #73728	; 0x12000
    5120:	e5bcfd0c 	ldr	pc, [ip, #3340]!	; 0xd0c

00005124 <_ZSt7forwardIRPKcEOT_RNSt16remove_referenceIS3_E4typeE@plt>:
    5124:	e28fc600 	add	ip, pc, #0, 12
    5128:	e28cca12 	add	ip, ip, #73728	; 0x12000
    512c:	e5bcfd04 	ldr	pc, [ip, #3332]!	; 0xd04

00005130 <_ZNSt16allocator_traitsISaISt19_Sp_counted_deleterIPKcSt8functionIFvS2_EESaIvELN9__gnu_cxx12_Lock_policyE2EEEE9constructIS9_IRS2_S5_S6_EEEDTcl12_S_constructfp_fp0_spcl7forwardIT0_Efp1_EEERSA_PT_DpOSE_@plt>:
    5130:	e28fc600 	add	ip, pc, #0, 12
    5134:	e28cca12 	add	ip, ip, #73728	; 0x12000
    5138:	e5bcfcfc 	ldr	pc, [ip, #3324]!	; 0xcfc

0000513c <_ZNKSt14_Function_base8_M_emptyEv@plt>:
    513c:	e28fc600 	add	ip, pc, #0, 12
    5140:	e28cca12 	add	ip, ip, #73728	; 0x12000
    5144:	e5bcfcf4 	ldr	pc, [ip, #3316]!	; 0xcf4

00005148 <_ZNKSt10unique_ptrIKc15jstring_deleterE3getEv@plt>:
    5148:	e28fc600 	add	ip, pc, #0, 12
    514c:	e28cca12 	add	ip, ip, #73728	; 0x12000
    5150:	e5bcfcec 	ldr	pc, [ip, #3308]!	; 0xcec

00005154 <_ZSt12__get_helperILj1E15jstring_deleterIEENSt9__add_refIT0_E4typeERSt11_Tuple_implIXT_EIS2_DpT1_EE@plt>:
    5154:	e28fc600 	add	ip, pc, #0, 12
    5158:	e28cca12 	add	ip, ip, #73728	; 0x12000
    515c:	e5bcfce4 	ldr	pc, [ip, #3300]!	; 0xce4

00005160 <_ZNSt16_Sp_counted_baseILN9__gnu_cxx12_Lock_policyE2EED1Ev@plt>:
    5160:	e28fc600 	add	ip, pc, #0, 12
    5164:	e28cca12 	add	ip, ip, #73728	; 0x12000
    5168:	e5bcfcdc 	ldr	pc, [ip, #3292]!	; 0xcdc

0000516c <_ZNSt12__shared_ptrIKcLN9__gnu_cxx12_Lock_policyE2EEC2IS0_St8functionIFvPS0_EEEEPT_T0_@plt>:
    516c:	e28fc600 	add	ip, pc, #0, 12
    5170:	e28cca12 	add	ip, ip, #73728	; 0x12000
    5174:	e5bcfcd4 	ldr	pc, [ip, #3284]!	; 0xcd4

00005178 <_ZSt7forwardIPKcEOT_RNSt16remove_referenceIS2_E4typeE@plt>:
    5178:	e28fc600 	add	ip, pc, #0, 12
    517c:	e28cca12 	add	ip, ip, #73728	; 0x12000
    5180:	e5bcfccc 	ldr	pc, [ip, #3276]!	; 0xccc

00005184 <_ZSt3getILj0EIPKc15jstring_deleterEENSt9__add_refINSt13tuple_elementIXT_ESt5tupleIIDpT0_EEE4typeEE4typeERS8_@plt>:
    5184:	e28fc600 	add	ip, pc, #0, 12
    5188:	e28cca12 	add	ip, ip, #73728	; 0x12000
    518c:	e5bcfcc4 	ldr	pc, [ip, #3268]!	; 0xcc4

00005190 <_ZN7JNIEnv_21ReleaseStringUTFCharsEP8_jstringPKc@plt>:
    5190:	e28fc600 	add	ip, pc, #0, 12
    5194:	e28cca12 	add	ip, ip, #73728	; 0x12000
    5198:	e5bcfcbc 	ldr	pc, [ip, #3260]!	; 0xcbc

0000519c <_ZSt4moveIRPFbRSt9_Any_dataRKS0_St18_Manager_operationEEONSt16remove_referenceIT_E4typeEOS9_@plt>:
    519c:	e28fc600 	add	ip, pc, #0, 12
    51a0:	e28cca12 	add	ip, ip, #73728	; 0x12000
    51a4:	e5bcfcb4 	ldr	pc, [ip, #3252]!	; 0xcb4

000051a8 <_ZNSt16allocator_traitsISaISt19_Sp_counted_deleterIPKcSt8functionIFvS2_EESaIvELN9__gnu_cxx12_Lock_policyE2EEEE12_S_constructIS9_IRS2_S5_S6_EEENSt9enable_ifIXsrSt6__and_IINSB_18__construct_helperIT_IDpT0_EE4typeEEE5valueEvE4typeERSA_PSH_DpOSI_@plt>:
    51a8:	e28fc600 	add	ip, pc, #0, 12
    51ac:	e28cca12 	add	ip, ip, #73728	; 0x12000
    51b0:	e5bcfcac 	ldr	pc, [ip, #3244]!	; 0xcac

000051b4 <_ZNSt14_Sp_ebo_helperILi1ESaIvELb1EE6_S_getERS1_@plt>:
    51b4:	e28fc600 	add	ip, pc, #0, 12
    51b8:	e28cca12 	add	ip, ip, #73728	; 0x12000
    51bc:	e5bcfca4 	ldr	pc, [ip, #3236]!	; 0xca4

000051c0 <_ZSt4moveIRSt9_Any_dataEONSt16remove_referenceIT_E4typeEOS3_@plt>:
    51c0:	e28fc600 	add	ip, pc, #0, 12
    51c4:	e28cca12 	add	ip, ip, #73728	; 0x12000
    51c8:	e5bcfc9c 	ldr	pc, [ip, #3228]!	; 0xc9c

000051cc <_ZNSt8functionIFvPKcEED1Ev@plt>:
    51cc:	e28fc600 	add	ip, pc, #0, 12
    51d0:	e28cca12 	add	ip, ip, #73728	; 0x12000
    51d4:	e5bcfc94 	ldr	pc, [ip, #3220]!	; 0xc94

000051d8 <_ZNSt14unary_functionIPKcvEC2Ev@plt>:
    51d8:	e28fc600 	add	ip, pc, #0, 12
    51dc:	e28cca12 	add	ip, ip, #73728	; 0x12000
    51e0:	e5bcfc8c 	ldr	pc, [ip, #3212]!	; 0xc8c

000051e4 <strlen@plt>:
    51e4:	e28fc600 	add	ip, pc, #0, 12
    51e8:	e28cca12 	add	ip, ip, #73728	; 0x12000
    51ec:	e5bcfc84 	ldr	pc, [ip, #3204]!	; 0xc84

000051f0 <_ZNSt10unique_ptrIKc15jstring_deleterE11get_deleterEv@plt>:
    51f0:	e28fc600 	add	ip, pc, #0, 12
    51f4:	e28cca12 	add	ip, ip, #73728	; 0x12000
    51f8:	e5bcfc7c 	ldr	pc, [ip, #3196]!	; 0xc7c

000051fc <_ZNSt5tupleIIPKc15jstring_deleterEEC1IRS1_RKS2_vEEOT_OT0_@plt>:
    51fc:	e28fc600 	add	ip, pc, #0, 12
    5200:	e28cca12 	add	ip, ip, #73728	; 0x12000
    5204:	e5bcfc74 	ldr	pc, [ip, #3188]!	; 0xc74

00005208 <_ZNSt10_Head_baseILj0EPKcLb0EEC2IRS1_EEOT_@plt>:
    5208:	e28fc600 	add	ip, pc, #0, 12
    520c:	e28cca12 	add	ip, ip, #73728	; 0x12000
    5210:	e5bcfc6c 	ldr	pc, [ip, #3180]!	; 0xc6c

00005214 <_ZN9__gnu_cxx13new_allocatorISt19_Sp_counted_deleterIPKcSt8functionIFvS3_EESaIvELNS_12_Lock_policyE2EEED2Ev@plt>:
    5214:	e28fc600 	add	ip, pc, #0, 12
    5218:	e28cca12 	add	ip, ip, #73728	; 0x12000
    521c:	e5bcfc64 	ldr	pc, [ip, #3172]!	; 0xc64

00005220 <_ZNSsC1EPKcRKSaIcE@plt>:
    5220:	e28fc600 	add	ip, pc, #0, 12
    5224:	e28cca12 	add	ip, ip, #73728	; 0x12000
    5228:	e5bcfc5c 	ldr	pc, [ip, #3164]!	; 0xc5c

0000522c <_ZNSt16allocator_traitsISaISt19_Sp_counted_deleterIPKcSt8functionIFvS2_EESaIvELN9__gnu_cxx12_Lock_policyE2EEEE8allocateERSA_j@plt>:
    522c:	e28fc600 	add	ip, pc, #0, 12
    5230:	e28cca12 	add	ip, ip, #73728	; 0x12000
    5234:	e5bcfc54 	ldr	pc, [ip, #3156]!	; 0xc54

00005238 <_ZN9__gnu_cxx13new_allocatorISt19_Sp_counted_deleterIPKcSt8functionIFvS3_EESaIvELNS_12_Lock_policyE2EEE10deallocateEPS9_j@plt>:
    5238:	e28fc600 	add	ip, pc, #0, 12
    523c:	e28cca12 	add	ip, ip, #73728	; 0x12000
    5240:	e5bcfc4c 	ldr	pc, [ip, #3148]!	; 0xc4c

00005244 <_ZNSt14_Function_baseD2Ev@plt>:
    5244:	e28fc600 	add	ip, pc, #0, 12
    5248:	e28cca12 	add	ip, ip, #73728	; 0x12000
    524c:	e5bcfc44 	ldr	pc, [ip, #3140]!	; 0xc44

00005250 <_ZNSt10shared_ptrIKcEC1IS0_St8functionIFvPS0_EEEEPT_T0_@plt>:
    5250:	e28fc600 	add	ip, pc, #0, 12
    5254:	e28cca12 	add	ip, ip, #73728	; 0x12000
    5258:	e5bcfc3c 	ldr	pc, [ip, #3132]!	; 0xc3c

0000525c <_Znwj@plt>:
    525c:	e28fc600 	add	ip, pc, #0, 12
    5260:	e28cca12 	add	ip, ip, #73728	; 0x12000
    5264:	e5bcfc34 	ldr	pc, [ip, #3124]!	; 0xc34

00005268 <_ZNKSt9type_infoeqERKS_@plt>:
    5268:	e28fc600 	add	ip, pc, #0, 12
    526c:	e28cca12 	add	ip, ip, #73728	; 0x12000
    5270:	e5bcfc2c 	ldr	pc, [ip, #3116]!	; 0xc2c

00005274 <_ZNSt10unique_ptrIKc15jstring_deleterED1Ev@plt>:
    5274:	e28fc600 	add	ip, pc, #0, 12
    5278:	e28cca12 	add	ip, ip, #73728	; 0x12000
    527c:	e5bcfc24 	ldr	pc, [ip, #3108]!	; 0xc24

00005280 <_ZSt7forwardIRK15jstring_deleterEOT_RNSt16remove_referenceIS3_E4typeE@plt>:
    5280:	e28fc600 	add	ip, pc, #0, 12
    5284:	e28cca12 	add	ip, ip, #73728	; 0x12000
    5288:	e5bcfc1c 	ldr	pc, [ip, #3100]!	; 0xc1c

0000528c <_ZSt25__throw_bad_function_callv@plt>:
    528c:	e28fc600 	add	ip, pc, #0, 12
    5290:	e28cca12 	add	ip, ip, #73728	; 0x12000
    5294:	e5bcfc14 	ldr	pc, [ip, #3092]!	; 0xc14

00005298 <_ZStlsIcSt11char_traitsIcESaIcEERSt13basic_ostreamIT_T0_ES7_RKSbIS4_S5_T1_E@plt>:
    5298:	e28fc600 	add	ip, pc, #0, 12
    529c:	e28cca12 	add	ip, ip, #73728	; 0x12000
    52a0:	e5bcfc0c 	ldr	pc, [ip, #3084]!	; 0xc0c

000052a4 <_ZNSt8functionIFvPKcEEC1ERKS3_@plt>:
    52a4:	e28fc600 	add	ip, pc, #0, 12
    52a8:	e28cca12 	add	ip, ip, #73728	; 0x12000
    52ac:	e5bcfc04 	ldr	pc, [ip, #3076]!	; 0xc04

000052b0 <_ZNSt19_Sp_counted_deleterIPKcSt8functionIFvS1_EESaIvELN9__gnu_cxx12_Lock_policyE2EE5_ImplC1ES1_S4_RKS5_@plt>:
    52b0:	e28fc600 	add	ip, pc, #0, 12
    52b4:	e28cca12 	add	ip, ip, #73728	; 0x12000
    52b8:	e5bcfbfc 	ldr	pc, [ip, #3068]!	; 0xbfc

000052bc <_ZNSt14_Sp_ebo_helperILi0ESt8functionIFvPKcEELb0EEC2ERKS4_@plt>:
    52bc:	e28fc600 	add	ip, pc, #0, 12
    52c0:	e28cca12 	add	ip, ip, #73728	; 0x12000
    52c4:	e5bcfbf4 	ldr	pc, [ip, #3060]!	; 0xbf4

000052c8 <_ZSt7forwardISaIvEEOT_RNSt16remove_referenceIS1_E4typeE@plt>:
    52c8:	e28fc600 	add	ip, pc, #0, 12
    52cc:	e28cca12 	add	ip, ip, #73728	; 0x12000
    52d0:	e5bcfbec 	ldr	pc, [ip, #3052]!	; 0xbec

000052d4 <_ZNSaIcED1Ev@plt>:
    52d4:	e28fc600 	add	ip, pc, #0, 12
    52d8:	e28cca12 	add	ip, ip, #73728	; 0x12000
    52dc:	e5bcfbe4 	ldr	pc, [ip, #3044]!	; 0xbe4

000052e0 <_ZSt12__get_helperILj0EPKcI15jstring_deleterEENSt11__add_c_refIT0_E4typeERKSt11_Tuple_implIXT_EIS4_DpT1_EE@plt>:
    52e0:	e28fc600 	add	ip, pc, #0, 12
    52e4:	e28cca12 	add	ip, ip, #73728	; 0x12000
    52e8:	e5bcfbdc 	ldr	pc, [ip, #3036]!	; 0xbdc

000052ec <_ZNK9__gnu_cxx13new_allocatorISt19_Sp_counted_deleterIPKcSt8functionIFvS3_EESaIvELNS_12_Lock_policyE2EEE8max_sizeEv@plt>:
    52ec:	e28fc600 	add	ip, pc, #0, 12
    52f0:	e28cca12 	add	ip, ip, #73728	; 0x12000
    52f4:	e5bcfbd4 	ldr	pc, [ip, #3028]!	; 0xbd4

000052f8 <_ZNSt14_Sp_ebo_helperILi0ESt8functionIFvPKcEELb0EED2Ev@plt>:
    52f8:	e28fc600 	add	ip, pc, #0, 12
    52fc:	e28cca12 	add	ip, ip, #73728	; 0x12000
    5300:	e5bcfbcc 	ldr	pc, [ip, #3020]!	; 0xbcc

00005304 <_ZSt3getILj0EIPKc15jstring_deleterEENSt11__add_c_refINSt13tuple_elementIXT_ESt5tupleIIDpT0_EEE4typeEE4typeERKS8_@plt>:
    5304:	e28fc600 	add	ip, pc, #0, 12
    5308:	e28cca12 	add	ip, ip, #73728	; 0x12000
    530c:	e5bcfbc4 	ldr	pc, [ip, #3012]!	; 0xbc4

00005310 <_ZNSt16_Sp_counted_baseILN9__gnu_cxx12_Lock_policyE2EED2Ev@plt>:
    5310:	e28fc600 	add	ip, pc, #0, 12
    5314:	e28cca12 	add	ip, ip, #73728	; 0x12000
    5318:	e5bcfbbc 	ldr	pc, [ip, #3004]!	; 0xbbc

0000531c <_ZNSt10_Head_baseILj1E15jstring_deleterLb0EE7_M_headERS1_@plt>:
    531c:	e28fc600 	add	ip, pc, #0, 12
    5320:	e28cca12 	add	ip, ip, #73728	; 0x12000
    5324:	e5bcfbb4 	ldr	pc, [ip, #2996]!	; 0xbb4

00005328 <_ZN9__gnu_cxx13new_allocatorISt19_Sp_counted_deleterIPKcSt8functionIFvS3_EESaIvELNS_12_Lock_policyE2EEE8allocateEjPKv@plt>:
    5328:	e28fc600 	add	ip, pc, #0, 12
    532c:	e28cca12 	add	ip, ip, #73728	; 0x12000
    5330:	e5bcfbac 	ldr	pc, [ip, #2988]!	; 0xbac

00005334 <_ZNSt16allocator_traitsISaISt19_Sp_counted_deleterIPKcSt8functionIFvS2_EESaIvELN9__gnu_cxx12_Lock_policyE2EEEE7destroyIS9_EEvRSA_PT_@plt>:
    5334:	e28fc600 	add	ip, pc, #0, 12
    5338:	e28cca12 	add	ip, ip, #73728	; 0x12000
    533c:	e5bcfba4 	ldr	pc, [ip, #2980]!	; 0xba4

00005340 <strcat@plt>:
    5340:	e28fc600 	add	ip, pc, #0, 12
    5344:	e28cca12 	add	ip, ip, #73728	; 0x12000
    5348:	e5bcfb9c 	ldr	pc, [ip, #2972]!	; 0xb9c

0000534c <_ZSt3getILj1EIPKc15jstring_deleterEENSt9__add_refINSt13tuple_elementIXT_ESt5tupleIIDpT0_EEE4typeEE4typeERS8_@plt>:
    534c:	e28fc600 	add	ip, pc, #0, 12
    5350:	e28cca12 	add	ip, ip, #73728	; 0x12000
    5354:	e5bcfb94 	ldr	pc, [ip, #2964]!	; 0xb94

00005358 <__aeabi_atexit@plt>:
    5358:	e28fc600 	add	ip, pc, #0, 12
    535c:	e28cca12 	add	ip, ip, #73728	; 0x12000
    5360:	e5bcfb8c 	ldr	pc, [ip, #2956]!	; 0xb8c

00005364 <_ZNSt11_Tuple_implILj1EI15jstring_deleterEE7_M_headERS1_@plt>:
    5364:	e28fc600 	add	ip, pc, #0, 12
    5368:	e28cca12 	add	ip, ip, #73728	; 0x12000
    536c:	e5bcfb84 	ldr	pc, [ip, #2948]!	; 0xb84

00005370 <_ZNSt10_Head_baseILj0EPKcLb0EE7_M_headERS2_@plt>:
    5370:	e28fc600 	add	ip, pc, #0, 12
    5374:	e28cca12 	add	ip, ip, #73728	; 0x12000
    5378:	e5bcfb7c 	ldr	pc, [ip, #2940]!	; 0xb7c

0000537c <_ZSt4swapIPFbRSt9_Any_dataRKS0_St18_Manager_operationEEvRT_S8_@plt>:
    537c:	e28fc600 	add	ip, pc, #0, 12
    5380:	e28cca12 	add	ip, ip, #73728	; 0x12000
    5384:	e5bcfb74 	ldr	pc, [ip, #2932]!	; 0xb74

00005388 <_ZNSolsEPFRSoS_E@plt>:
    5388:	e28fc600 	add	ip, pc, #0, 12
    538c:	e28cca12 	add	ip, ip, #73728	; 0x12000
    5390:	e5bcfb6c 	ldr	pc, [ip, #2924]!	; 0xb6c

00005394 <_ZNSt19_Sp_counted_deleterIPKcSt8functionIFvS1_EESaIvELN9__gnu_cxx12_Lock_policyE2EE5_Impl6_M_delEv@plt>:
    5394:	e28fc600 	add	ip, pc, #0, 12
    5398:	e28cca12 	add	ip, ip, #73728	; 0x12000
    539c:	e5bcfb64 	ldr	pc, [ip, #2916]!	; 0xb64

000053a0 <_ZNSt10unique_ptrIKc15jstring_deleterEC1EPS0_RKS1_@plt>:
    53a0:	e28fc600 	add	ip, pc, #0, 12
    53a4:	e28cca12 	add	ip, ip, #73728	; 0x12000
    53a8:	e5bcfb5c 	ldr	pc, [ip, #2908]!	; 0xb5c

000053ac <_ZN15jstring_deleterC1EP7JNIEnv_P8_jstring@plt>:
    53ac:	e28fc600 	add	ip, pc, #0, 12
    53b0:	e28cca12 	add	ip, ip, #73728	; 0x12000
    53b4:	e5bcfb54 	ldr	pc, [ip, #2900]!	; 0xb54

000053b8 <_ZSt4moveIRSt8functionIFvPKcEEEONSt16remove_referenceIT_E4typeEOS7_@plt>:
    53b8:	e28fc600 	add	ip, pc, #0, 12
    53bc:	e28cca12 	add	ip, ip, #73728	; 0x12000
    53c0:	e5bcfb4c 	ldr	pc, [ip, #2892]!	; 0xb4c

000053c4 <__cxa_end_catch@plt>:
    53c4:	e28fc600 	add	ip, pc, #0, 12
    53c8:	e28cca12 	add	ip, ip, #73728	; 0x12000
    53cc:	e5bcfb44 	ldr	pc, [ip, #2884]!	; 0xb44

000053d0 <_ZSt17__throw_bad_allocv@plt>:
    53d0:	e28fc600 	add	ip, pc, #0, 12
    53d4:	e28cca12 	add	ip, ip, #73728	; 0x12000
    53d8:	e5bcfb3c 	ldr	pc, [ip, #2876]!	; 0xb3c

000053dc <_ZNSt8functionIFvPKcEEC1EOS3_@plt>:
    53dc:	e28fc600 	add	ip, pc, #0, 12
    53e0:	e28cca12 	add	ip, ip, #73728	; 0x12000
    53e4:	e5bcfb34 	ldr	pc, [ip, #2868]!	; 0xb34

000053e8 <__cxa_begin_catch@plt>:
    53e8:	e28fc600 	add	ip, pc, #0, 12
    53ec:	e28cca12 	add	ip, ip, #73728	; 0x12000
    53f0:	e5bcfb2c 	ldr	pc, [ip, #2860]!	; 0xb2c

000053f4 <_ZN7JNIEnv_17GetStringUTFCharsEP8_jstringPh@plt>:
    53f4:	e28fc600 	add	ip, pc, #0, 12
    53f8:	e28cca12 	add	ip, ip, #73728	; 0x12000
    53fc:	e5bcfb24 	ldr	pc, [ip, #2852]!	; 0xb24

00005400 <_ZNSaISt19_Sp_counted_deleterIPKcSt8functionIFvS1_EESaIvELN9__gnu_cxx12_Lock_policyE2EEED1Ev@plt>:
    5400:	e28fc600 	add	ip, pc, #0, 12
    5404:	e28cca12 	add	ip, ip, #73728	; 0x12000
    5408:	e5bcfb1c 	ldr	pc, [ip, #2844]!	; 0xb1c

0000540c <_ZNSaIcEC1Ev@plt>:
    540c:	e28fc600 	add	ip, pc, #0, 12
    5410:	e28cca12 	add	ip, ip, #73728	; 0x12000
    5414:	e5bcfb14 	ldr	pc, [ip, #2836]!	; 0xb14

00005418 <__gxx_personality_v0@plt>:
    5418:	e28fc600 	add	ip, pc, #0, 12
    541c:	e28cca12 	add	ip, ip, #73728	; 0x12000
    5420:	e5bcfb0c 	ldr	pc, [ip, #2828]!	; 0xb0c

00005424 <_ZNSt14_Function_baseC2Ev@plt>:
    5424:	e28fc600 	add	ip, pc, #0, 12
    5428:	e28cca12 	add	ip, ip, #73728	; 0x12000
    542c:	e5bcfb04 	ldr	pc, [ip, #2820]!	; 0xb04

00005430 <_ZSt7forwardISt8functionIFvPKcEEEOT_RNSt16remove_referenceIS5_E4typeE@plt>:
    5430:	e28fc600 	add	ip, pc, #0, 12
    5434:	e28cca12 	add	ip, ip, #73728	; 0x12000
    5438:	e5bcfafc 	ldr	pc, [ip, #2812]!	; 0xafc

0000543c <_ZNKSt8functionIFvPKcEEcvbEv@plt>:
    543c:	e28fc600 	add	ip, pc, #0, 12
    5440:	e28cca12 	add	ip, ip, #73728	; 0x12000
    5444:	e5bcfaf4 	ldr	pc, [ip, #2804]!	; 0xaf4

00005448 <_ZNSt16allocator_traitsISaISt19_Sp_counted_deleterIPKcSt8functionIFvS2_EESaIvELN9__gnu_cxx12_Lock_policyE2EEEE10_S_destroyIS9_EENSt9enable_ifIXsrSt6__and_IINSB_16__destroy_helperIT_E4typeEEE5valueEvE4typeERSA_PSG_@plt>:
    5448:	e28fc600 	add	ip, pc, #0, 12
    544c:	e28cca12 	add	ip, ip, #73728	; 0x12000
    5450:	e5bcfaec 	ldr	pc, [ip, #2796]!	; 0xaec

00005454 <__cxa_finalize@plt>:
    5454:	e28fc600 	add	ip, pc, #0, 12
    5458:	e28cca12 	add	ip, ip, #73728	; 0x12000
    545c:	e5bcfae4 	ldr	pc, [ip, #2788]!	; 0xae4

00005460 <_ZNSt14__shared_countILN9__gnu_cxx12_Lock_policyE2EEC1IPKcSt8functionIFvS5_EESaIvEEET_T0_T1_@plt>:
    5460:	e28fc600 	add	ip, pc, #0, 12
    5464:	e28cca12 	add	ip, ip, #73728	; 0x12000
    5468:	e5bcfadc 	ldr	pc, [ip, #2780]!	; 0xadc

Disassembly of section .text:

0000546c <call_weak_fn>:
    546c:	e59f3014 	ldr	r3, [pc, #20]	; 5488 <call_weak_fn+0x1c>
    5470:	e59f2014 	ldr	r2, [pc, #20]	; 548c <call_weak_fn+0x20>
    5474:	e08f3003 	add	r3, pc, r3
    5478:	e7932002 	ldr	r2, [r3, r2]
    547c:	e3520000 	cmp	r2, #0
    5480:	012fff1e 	bxeq	lr
    5484:	eafffee1 	b	5010 <__gmon_start__@plt>
    5488:	000128f8 	strdeq	r2, [r1], -r8
    548c:	000001d8 	ldrdeq	r0, [r0], -r8

00005490 <deregister_tm_clones>:
    5490:	4b07      	ldr	r3, [pc, #28]	; (54b0 <deregister_tm_clones+0x20>)
    5492:	4808      	ldr	r0, [pc, #32]	; (54b4 <deregister_tm_clones+0x24>)
    5494:	447b      	add	r3, pc
    5496:	4a08      	ldr	r2, [pc, #32]	; (54b8 <deregister_tm_clones+0x28>)
    5498:	4478      	add	r0, pc
    549a:	3303      	adds	r3, #3
    549c:	1a1b      	subs	r3, r3, r0
    549e:	447a      	add	r2, pc
    54a0:	2b06      	cmp	r3, #6
    54a2:	d903      	bls.n	54ac <deregister_tm_clones+0x1c>
    54a4:	4b05      	ldr	r3, [pc, #20]	; (54bc <deregister_tm_clones+0x2c>)
    54a6:	58d3      	ldr	r3, [r2, r3]
    54a8:	b103      	cbz	r3, 54ac <deregister_tm_clones+0x1c>
    54aa:	4718      	bx	r3
    54ac:	4770      	bx	lr
    54ae:	bf00      	nop
    54b0:	00012ae0 	andeq	r2, r1, r0, ror #21
    54b4:	00012adc 	ldrdeq	r2, [r1], -ip
    54b8:	000128d2 	ldrdeq	r2, [r1], -r2	; <UNPREDICTABLE>
    54bc:	000001e4 	andeq	r0, r0, r4, ror #3

000054c0 <register_tm_clones>:
    54c0:	4908      	ldr	r1, [pc, #32]	; (54e4 <register_tm_clones+0x24>)
    54c2:	4809      	ldr	r0, [pc, #36]	; (54e8 <register_tm_clones+0x28>)
    54c4:	4479      	add	r1, pc
    54c6:	4b09      	ldr	r3, [pc, #36]	; (54ec <register_tm_clones+0x2c>)
    54c8:	4478      	add	r0, pc
    54ca:	1a09      	subs	r1, r1, r0
    54cc:	447b      	add	r3, pc
    54ce:	1089      	asrs	r1, r1, #2
    54d0:	eb01 71d1 	add.w	r1, r1, r1, lsr #31
    54d4:	1049      	asrs	r1, r1, #1
    54d6:	d003      	beq.n	54e0 <register_tm_clones+0x20>
    54d8:	4a05      	ldr	r2, [pc, #20]	; (54f0 <register_tm_clones+0x30>)
    54da:	589b      	ldr	r3, [r3, r2]
    54dc:	b103      	cbz	r3, 54e0 <register_tm_clones+0x20>
    54de:	4718      	bx	r3
    54e0:	4770      	bx	lr
    54e2:	bf00      	nop
    54e4:	00012ab0 			; <UNDEFINED> instruction: 0x00012ab0
    54e8:	00012aac 	andeq	r2, r1, ip, lsr #21
    54ec:	000128a4 	andeq	r2, r1, r4, lsr #17
    54f0:	000001e8 	andeq	r0, r0, r8, ror #3

000054f4 <__do_global_dtors_aux>:
    54f4:	b508      	push	{r3, lr}
    54f6:	4b0a      	ldr	r3, [pc, #40]	; (5520 <__do_global_dtors_aux+0x2c>)
    54f8:	4a0a      	ldr	r2, [pc, #40]	; (5524 <__do_global_dtors_aux+0x30>)
    54fa:	447b      	add	r3, pc
    54fc:	447a      	add	r2, pc
    54fe:	781b      	ldrb	r3, [r3, #0]
    5500:	b96b      	cbnz	r3, 551e <__do_global_dtors_aux+0x2a>
    5502:	4b09      	ldr	r3, [pc, #36]	; (5528 <__do_global_dtors_aux+0x34>)
    5504:	58d3      	ldr	r3, [r2, r3]
    5506:	b123      	cbz	r3, 5512 <__do_global_dtors_aux+0x1e>
    5508:	4b08      	ldr	r3, [pc, #32]	; (552c <__do_global_dtors_aux+0x38>)
    550a:	447b      	add	r3, pc
    550c:	6818      	ldr	r0, [r3, #0]
    550e:	f7ff efa2 	blx	5454 <__cxa_finalize@plt>
    5512:	f7ff ffbd 	bl	5490 <deregister_tm_clones>
    5516:	4b06      	ldr	r3, [pc, #24]	; (5530 <__do_global_dtors_aux+0x3c>)
    5518:	2201      	movs	r2, #1
    551a:	447b      	add	r3, pc
    551c:	701a      	strb	r2, [r3, #0]
    551e:	bd08      	pop	{r3, pc}
    5520:	00012a7a 	andeq	r2, r1, sl, ror sl
    5524:	00012874 	andeq	r2, r1, r4, ror r8
    5528:	000001fc 	strdeq	r0, [r0], -ip
    552c:	00012a66 	andeq	r2, r1, r6, ror #20
    5530:	00012a5a 	andeq	r2, r1, sl, asr sl

00005534 <frame_dummy>:
    5534:	4807      	ldr	r0, [pc, #28]	; (5554 <frame_dummy+0x20>)
    5536:	b508      	push	{r3, lr}
    5538:	4478      	add	r0, pc
    553a:	6802      	ldr	r2, [r0, #0]
    553c:	4b06      	ldr	r3, [pc, #24]	; (5558 <frame_dummy+0x24>)
    553e:	447b      	add	r3, pc
    5540:	b912      	cbnz	r2, 5548 <frame_dummy+0x14>
    5542:	e8bd 4008 	ldmia.w	sp!, {r3, lr}
    5546:	e7bb      	b.n	54c0 <register_tm_clones>
    5548:	4a04      	ldr	r2, [pc, #16]	; (555c <frame_dummy+0x28>)
    554a:	589b      	ldr	r3, [r3, r2]
    554c:	2b00      	cmp	r3, #0
    554e:	d0f8      	beq.n	5542 <frame_dummy+0xe>
    5550:	4798      	blx	r3
    5552:	e7f6      	b.n	5542 <frame_dummy+0xe>
    5554:	00012694 	muleq	r1, r4, r6
    5558:	00012832 	andeq	r2, r1, r2, lsr r8
    555c:	000001dc 	ldrdeq	r0, [r0], -ip

00005560 <_Z8ToStringP7JNIEnv_P8_jstring>:
    5560:	e92d4810 	push	{r4, fp, lr}
    5564:	e28db008 	add	fp, sp, #8
    5568:	e24dd02c 	sub	sp, sp, #44	; 0x2c
    556c:	e50b0028 	str	r0, [fp, #-40]	; 0xffffffd8
    5570:	e50b102c 	str	r1, [fp, #-44]	; 0xffffffd4
    5574:	e50b2030 	str	r2, [fp, #-48]	; 0xffffffd0
    5578:	e24b3018 	sub	r3, fp, #24
    557c:	e1a00003 	mov	r0, r3
    5580:	e51b102c 	ldr	r1, [fp, #-44]	; 0xffffffd4
    5584:	e51b2030 	ldr	r2, [fp, #-48]	; 0xffffffd0
    5588:	ebffff87 	bl	53ac <_ZN15jstring_deleterC1EP7JNIEnv_P8_jstring@plt>
    558c:	e51b002c 	ldr	r0, [fp, #-44]	; 0xffffffd4
    5590:	e51b1030 	ldr	r1, [fp, #-48]	; 0xffffffd0
    5594:	e3a02000 	mov	r2, #0
    5598:	ebffff95 	bl	53f4 <_ZN7JNIEnv_17GetStringUTFCharsEP8_jstringPh@plt>
    559c:	e1a01000 	mov	r1, r0
    55a0:	e24b2024 	sub	r2, fp, #36	; 0x24
    55a4:	e24b3018 	sub	r3, fp, #24
    55a8:	e1a00002 	mov	r0, r2
    55ac:	e1a02003 	mov	r2, r3
    55b0:	ebffff7a 	bl	53a0 <_ZNSt10unique_ptrIKc15jstring_deleterEC1EPS0_RKS1_@plt>
    55b4:	e24b3024 	sub	r3, fp, #36	; 0x24
    55b8:	e1a00003 	mov	r0, r3
    55bc:	ebfffee1 	bl	5148 <_ZNKSt10unique_ptrIKc15jstring_deleterE3getEv@plt>
    55c0:	e1a04000 	mov	r4, r0
    55c4:	e24b3010 	sub	r3, fp, #16
    55c8:	e1a00003 	mov	r0, r3
    55cc:	ebffff8e 	bl	540c <_ZNSaIcEC1Ev@plt>
    55d0:	e24b3010 	sub	r3, fp, #16
    55d4:	e51b0028 	ldr	r0, [fp, #-40]	; 0xffffffd8
    55d8:	e1a01004 	mov	r1, r4
    55dc:	e1a02003 	mov	r2, r3
    55e0:	ebffff0e 	bl	5220 <_ZNSsC1EPKcRKSaIcE@plt>
    55e4:	e24b3010 	sub	r3, fp, #16
    55e8:	e1a00003 	mov	r0, r3
    55ec:	ebffff38 	bl	52d4 <_ZNSaIcED1Ev@plt>
    55f0:	e24b3024 	sub	r3, fp, #36	; 0x24
    55f4:	e1a00003 	mov	r0, r3
    55f8:	ebffff1d 	bl	5274 <_ZNSt10unique_ptrIKc15jstring_deleterED1Ev@plt>
    55fc:	ea000006 	b	561c <_Z8ToStringP7JNIEnv_P8_jstring+0xbc>
    5600:	e24b3010 	sub	r3, fp, #16
    5604:	e1a00003 	mov	r0, r3
    5608:	ebffff31 	bl	52d4 <_ZNSaIcED1Ev@plt>
    560c:	e24b3024 	sub	r3, fp, #36	; 0x24
    5610:	e1a00003 	mov	r0, r3
    5614:	ebffff16 	bl	5274 <_ZNSt10unique_ptrIKc15jstring_deleterED1Ev@plt>
    5618:	ebfffeaf 	bl	50dc <__cxa_end_cleanup@plt>
    561c:	e51b0028 	ldr	r0, [fp, #-40]	; 0xffffffd8
    5620:	e24bd008 	sub	sp, fp, #8
    5624:	e8bd8810 	pop	{r4, fp, pc}

00005628 <_ZZ11ToStringPtrP7JNIEnv_P8_jstringENKUlPKcE_clES4_>:
    5628:	e92d4810 	push	{r4, fp, lr}
    562c:	e28db008 	add	fp, sp, #8
    5630:	e24dd00c 	sub	sp, sp, #12
    5634:	e50b0010 	str	r0, [fp, #-16]
    5638:	e50b1014 	str	r1, [fp, #-20]	; 0xffffffec
    563c:	e59f406c 	ldr	r4, [pc, #108]	; 56b0 <_ZZ11ToStringPtrP7JNIEnv_P8_jstringENKUlPKcE_clES4_+0x88>
    5640:	e08f4004 	add	r4, pc, r4
    5644:	e59f3068 	ldr	r3, [pc, #104]	; 56b4 <_ZZ11ToStringPtrP7JNIEnv_P8_jstringENKUlPKcE_clES4_+0x8c>
    5648:	e7943003 	ldr	r3, [r4, r3]
    564c:	e1a00003 	mov	r0, r3
    5650:	e59f3060 	ldr	r3, [pc, #96]	; 56b8 <_ZZ11ToStringPtrP7JNIEnv_P8_jstringENKUlPKcE_clES4_+0x90>
    5654:	e08f3003 	add	r3, pc, r3
    5658:	e1a01003 	mov	r1, r3
    565c:	ebfffea4 	bl	50f4 <_ZStlsISt11char_traitsIcEERSt13basic_ostreamIcT_ES5_PKc@plt>
    5660:	e1a03000 	mov	r3, r0
    5664:	e1a00003 	mov	r0, r3
    5668:	e51b1014 	ldr	r1, [fp, #-20]	; 0xffffffec
    566c:	ebfffea0 	bl	50f4 <_ZStlsISt11char_traitsIcEERSt13basic_ostreamIcT_ES5_PKc@plt>
    5670:	e1a03000 	mov	r3, r0
    5674:	e1a00003 	mov	r0, r3
    5678:	e59f303c 	ldr	r3, [pc, #60]	; 56bc <_ZZ11ToStringPtrP7JNIEnv_P8_jstringENKUlPKcE_clES4_+0x94>
    567c:	e7943003 	ldr	r3, [r4, r3]
    5680:	e1a01003 	mov	r1, r3
    5684:	ebffff3f 	bl	5388 <_ZNSolsEPFRSoS_E@plt>
    5688:	e51b3010 	ldr	r3, [fp, #-16]
    568c:	e5932000 	ldr	r2, [r3]
    5690:	e51b3010 	ldr	r3, [fp, #-16]
    5694:	e5933004 	ldr	r3, [r3, #4]
    5698:	e1a00002 	mov	r0, r2
    569c:	e1a01003 	mov	r1, r3
    56a0:	e51b2014 	ldr	r2, [fp, #-20]	; 0xffffffec
    56a4:	ebfffeb9 	bl	5190 <_ZN7JNIEnv_21ReleaseStringUTFCharsEP8_jstringPKc@plt>
    56a8:	e24bd008 	sub	sp, fp, #8
    56ac:	e8bd8810 	pop	{r4, fp, pc}
    56b0:	0001272c 	andeq	r2, r1, ip, lsr #14
    56b4:	000001ec 	andeq	r0, r0, ip, ror #3
    56b8:	00001f10 	andeq	r1, r0, r0, lsl pc
    56bc:	000001f8 	strdeq	r0, [r0], -r8

000056c0 <_Z11ToStringPtrP7JNIEnv_P8_jstring>:
    56c0:	e92d4810 	push	{r4, fp, lr}
    56c4:	e28db008 	add	fp, sp, #8
    56c8:	e24dd03c 	sub	sp, sp, #60	; 0x3c
    56cc:	e50b0038 	str	r0, [fp, #-56]	; 0xffffffc8
    56d0:	e50b103c 	str	r1, [fp, #-60]	; 0xffffffc4
    56d4:	e50b2040 	str	r2, [fp, #-64]	; 0xffffffc0
    56d8:	e51b303c 	ldr	r3, [fp, #-60]	; 0xffffffc4
    56dc:	e50b3024 	str	r3, [fp, #-36]	; 0xffffffdc
    56e0:	e51b3040 	ldr	r3, [fp, #-64]	; 0xffffffc0
    56e4:	e50b3020 	str	r3, [fp, #-32]	; 0xffffffe0
    56e8:	e24b3034 	sub	r3, fp, #52	; 0x34
    56ec:	e1a00003 	mov	r0, r3
    56f0:	e24b3024 	sub	r3, fp, #36	; 0x24
    56f4:	e8930006 	ldm	r3, {r1, r2}
    56f8:	eb000095 	bl	5954 <_ZNSt8functionIFvPKcEEC2IZ11ToStringPtrP7JNIEnv_P8_jstringEUlS1_E_vEET_>
    56fc:	e51b003c 	ldr	r0, [fp, #-60]	; 0xffffffc4
    5700:	e51b1040 	ldr	r1, [fp, #-64]	; 0xffffffc0
    5704:	e3a02000 	mov	r2, #0
    5708:	ebffff39 	bl	53f4 <_ZN7JNIEnv_17GetStringUTFCharsEP8_jstringPh@plt>
    570c:	e1a04000 	mov	r4, r0
    5710:	e24b201c 	sub	r2, fp, #28
    5714:	e24b3034 	sub	r3, fp, #52	; 0x34
    5718:	e1a00002 	mov	r0, r2
    571c:	e1a01003 	mov	r1, r3
    5720:	ebfffedf 	bl	52a4 <_ZNSt8functionIFvPKcEEC1ERKS3_@plt>
    5724:	e24b301c 	sub	r3, fp, #28
    5728:	e51b0038 	ldr	r0, [fp, #-56]	; 0xffffffc8
    572c:	e1a01004 	mov	r1, r4
    5730:	e1a02003 	mov	r2, r3
    5734:	ebfffec5 	bl	5250 <_ZNSt10shared_ptrIKcEC1IS0_St8functionIFvPS0_EEEEPT_T0_@plt>
    5738:	e24b301c 	sub	r3, fp, #28
    573c:	e1a00003 	mov	r0, r3
    5740:	ebfffea1 	bl	51cc <_ZNSt8functionIFvPKcEED1Ev@plt>
    5744:	e24b3034 	sub	r3, fp, #52	; 0x34
    5748:	e1a00003 	mov	r0, r3
    574c:	ebfffe9e 	bl	51cc <_ZNSt8functionIFvPKcEED1Ev@plt>
    5750:	ea000007 	b	5774 <_Z11ToStringPtrP7JNIEnv_P8_jstring+0xb4>
    5754:	e24b301c 	sub	r3, fp, #28
    5758:	e1a00003 	mov	r0, r3
    575c:	ebfffe9a 	bl	51cc <_ZNSt8functionIFvPKcEED1Ev@plt>
    5760:	eaffffff 	b	5764 <_Z11ToStringPtrP7JNIEnv_P8_jstring+0xa4>
    5764:	e24b3034 	sub	r3, fp, #52	; 0x34
    5768:	e1a00003 	mov	r0, r3
    576c:	ebfffe96 	bl	51cc <_ZNSt8functionIFvPKcEED1Ev@plt>
    5770:	ebfffe59 	bl	50dc <__cxa_end_cleanup@plt>
    5774:	e51b0038 	ldr	r0, [fp, #-56]	; 0xffffffc8
    5778:	e24bd008 	sub	sp, fp, #8
    577c:	e8bd8810 	pop	{r4, fp, pc}

00005780 <Java_HelloJNI_print>:
    5780:	e92d4800 	push	{fp, lr}
    5784:	e28db004 	add	fp, sp, #4
    5788:	e24dd058 	sub	sp, sp, #88	; 0x58
    578c:	e50b0050 	str	r0, [fp, #-80]	; 0xffffffb0
    5790:	e50b1054 	str	r1, [fp, #-84]	; 0xffffffac
    5794:	e50b2058 	str	r2, [fp, #-88]	; 0xffffffa8
    5798:	e51b0050 	ldr	r0, [fp, #-80]	; 0xffffffb0
    579c:	e51b1058 	ldr	r1, [fp, #-88]	; 0xffffffa8
    57a0:	e3a02000 	mov	r2, #0
    57a4:	ebffff12 	bl	53f4 <_ZN7JNIEnv_17GetStringUTFCharsEP8_jstringPh@plt>
    57a8:	e1a03000 	mov	r3, r0
    57ac:	e50b3008 	str	r3, [fp, #-8]
    57b0:	e59f2090 	ldr	r2, [pc, #144]	; 5848 <Java_HelloJNI_print+0xc8>
    57b4:	e08f2002 	add	r2, pc, r2
    57b8:	e24b3048 	sub	r3, fp, #72	; 0x48
    57bc:	e8920003 	ldm	r2, {r0, r1}
    57c0:	e5830000 	str	r0, [r3]
    57c4:	e2833004 	add	r3, r3, #4
    57c8:	e1c310b0 	strh	r1, [r3]
    57cc:	e2833002 	add	r3, r3, #2
    57d0:	e1a02821 	lsr	r2, r1, #16
    57d4:	e5c32000 	strb	r2, [r3]
    57d8:	e24b3041 	sub	r3, fp, #65	; 0x41
    57dc:	e3a02035 	mov	r2, #53	; 0x35
    57e0:	e1a00003 	mov	r0, r3
    57e4:	e3a01000 	mov	r1, #0
    57e8:	ebfffe38 	bl	50d0 <memset@plt>
    57ec:	e51b0008 	ldr	r0, [fp, #-8]
    57f0:	ebfffe7b 	bl	51e4 <strlen@plt>
    57f4:	e1a03000 	mov	r3, r0
    57f8:	e3530005 	cmp	r3, #5
    57fc:	9a000003 	bls	5810 <Java_HelloJNI_print+0x90>
    5800:	e24b3048 	sub	r3, fp, #72	; 0x48
    5804:	e1a00003 	mov	r0, r3
    5808:	e51b1008 	ldr	r1, [fp, #-8]
    580c:	ebfffecb 	bl	5340 <strcat@plt>
    5810:	e51b0050 	ldr	r0, [fp, #-80]	; 0xffffffb0
    5814:	e51b1058 	ldr	r1, [fp, #-88]	; 0xffffffa8
    5818:	e51b2008 	ldr	r2, [fp, #-8]
    581c:	ebfffe5b 	bl	5190 <_ZN7JNIEnv_21ReleaseStringUTFCharsEP8_jstringPKc@plt>
    5820:	e24b3048 	sub	r3, fp, #72	; 0x48
    5824:	e51b0050 	ldr	r0, [fp, #-80]	; 0xffffffb0
    5828:	e1a01003 	mov	r1, r3
    582c:	ebfffdbe 	bl	4f2c <_ZN7JNIEnv_12NewStringUTFEPKc@plt>
    5830:	e1a03000 	mov	r3, r0
    5834:	e50b300c 	str	r3, [fp, #-12]
    5838:	e51b300c 	ldr	r3, [fp, #-12]
    583c:	e1a00003 	mov	r0, r3
    5840:	e24bd004 	sub	sp, fp, #4
    5844:	e8bd8800 	pop	{fp, pc}
    5848:	00001dc4 	andeq	r1, r0, r4, asr #27

0000584c <Java_HelloJNI_incr>:
    584c:	e92d4800 	push	{fp, lr}
    5850:	e28db004 	add	fp, sp, #4
    5854:	e24dd010 	sub	sp, sp, #16
    5858:	e50b0008 	str	r0, [fp, #-8]
    585c:	e50b100c 	str	r1, [fp, #-12]
    5860:	e50b2010 	str	r2, [fp, #-16]
    5864:	e51b0010 	ldr	r0, [fp, #-16]
    5868:	ebfffdd0 	bl	4fb0 <_Z6DoIncri@plt>
    586c:	e1a03000 	mov	r3, r0
    5870:	e1a00003 	mov	r0, r3
    5874:	e24bd004 	sub	sp, fp, #4
    5878:	e8bd8800 	pop	{fp, pc}

0000587c <_Z6DoIncri>:
    587c:	e52db004 	push	{fp}		; (str fp, [sp, #-4]!)
    5880:	e28db000 	add	fp, sp, #0
    5884:	e24dd00c 	sub	sp, sp, #12
    5888:	e50b0008 	str	r0, [fp, #-8]
    588c:	e51b3008 	ldr	r3, [fp, #-8]
    5890:	e3530000 	cmp	r3, #0
    5894:	aa000002 	bge	58a4 <_Z6DoIncri+0x28>
    5898:	e51b3008 	ldr	r3, [fp, #-8]
    589c:	e2633000 	rsb	r3, r3, #0
    58a0:	ea000001 	b	58ac <_Z6DoIncri+0x30>
    58a4:	e51b3008 	ldr	r3, [fp, #-8]
    58a8:	e2833001 	add	r3, r3, #1
    58ac:	e1a00003 	mov	r0, r3
    58b0:	e24bd000 	sub	sp, fp, #0
    58b4:	e49db004 	pop	{fp}		; (ldr fp, [sp], #4)
    58b8:	e12fff1e 	bx	lr

000058bc <_Z10DoSayHelloRKSs>:
    58bc:	e92d4810 	push	{r4, fp, lr}
    58c0:	e28db008 	add	fp, sp, #8
    58c4:	e24dd00c 	sub	sp, sp, #12
    58c8:	e50b0010 	str	r0, [fp, #-16]
    58cc:	e59f404c 	ldr	r4, [pc, #76]	; 5920 <_Z10DoSayHelloRKSs+0x64>
    58d0:	e08f4004 	add	r4, pc, r4
    58d4:	e59f3048 	ldr	r3, [pc, #72]	; 5924 <_Z10DoSayHelloRKSs+0x68>
    58d8:	e7943003 	ldr	r3, [r4, r3]
    58dc:	e1a00003 	mov	r0, r3
    58e0:	e59f3040 	ldr	r3, [pc, #64]	; 5928 <_Z10DoSayHelloRKSs+0x6c>
    58e4:	e08f3003 	add	r3, pc, r3
    58e8:	e1a01003 	mov	r1, r3
    58ec:	ebfffe00 	bl	50f4 <_ZStlsISt11char_traitsIcEERSt13basic_ostreamIcT_ES5_PKc@plt>
    58f0:	e1a03000 	mov	r3, r0
    58f4:	e1a00003 	mov	r0, r3
    58f8:	e51b1010 	ldr	r1, [fp, #-16]
    58fc:	ebfffe65 	bl	5298 <_ZStlsIcSt11char_traitsIcESaIcEERSt13basic_ostreamIT_T0_ES7_RKSbIS4_S5_T1_E@plt>
    5900:	e1a03000 	mov	r3, r0
    5904:	e1a00003 	mov	r0, r3
    5908:	e59f301c 	ldr	r3, [pc, #28]	; 592c <_Z10DoSayHelloRKSs+0x70>
    590c:	e7943003 	ldr	r3, [r4, r3]
    5910:	e1a01003 	mov	r1, r3
    5914:	ebfffe9b 	bl	5388 <_ZNSolsEPFRSoS_E@plt>
    5918:	e24bd008 	sub	sp, fp, #8
    591c:	e8bd8810 	pop	{r4, fp, pc}
    5920:	0001249c 	muleq	r1, ip, r4
    5924:	000001ec 	andeq	r0, r0, ip, ror #3
    5928:	00001cd0 	ldrdeq	r1, [r0], -r0
    592c:	000001f8 	strdeq	r0, [r0], -r8

00005930 <_ZSt4moveIRZ11ToStringPtrP7JNIEnv_P8_jstringEUlPKcE_EONSt16remove_referenceIT_E4typeEOS9_>:
    5930:	e52db004 	push	{fp}		; (str fp, [sp, #-4]!)
    5934:	e28db000 	add	fp, sp, #0
    5938:	e24dd00c 	sub	sp, sp, #12
    593c:	e50b0008 	str	r0, [fp, #-8]
    5940:	e51b3008 	ldr	r3, [fp, #-8]
    5944:	e1a00003 	mov	r0, r3
    5948:	e24bd000 	sub	sp, fp, #0
    594c:	e49db004 	pop	{fp}		; (ldr fp, [sp], #4)
    5950:	e12fff1e 	bx	lr

00005954 <_ZNSt8functionIFvPKcEEC2IZ11ToStringPtrP7JNIEnv_P8_jstringEUlS1_E_vEET_>:
    5954:	e92d4810 	push	{r4, fp, lr}
    5958:	e28db008 	add	fp, sp, #8
    595c:	e24dd014 	sub	sp, sp, #20
    5960:	e50b0010 	str	r0, [fp, #-16]
    5964:	e24b3018 	sub	r3, fp, #24
    5968:	e8830006 	stm	r3, {r1, r2}
    596c:	e51b0010 	ldr	r0, [fp, #-16]
    5970:	ebfffd7c 	bl	4f68 <_ZNSt31_Maybe_unary_or_binary_functionIvIPKcEEC2Ev@plt>
    5974:	e51b3010 	ldr	r3, [fp, #-16]
    5978:	e1a00003 	mov	r0, r3
    597c:	ebfffea8 	bl	5424 <_ZNSt14_Function_baseC2Ev@plt>
    5980:	e24b3018 	sub	r3, fp, #24
    5984:	e1a00003 	mov	r0, r3
    5988:	eb00001d 	bl	5a04 <_ZNSt14_Function_base13_Base_managerIZ11ToStringPtrP7JNIEnv_P8_jstringEUlPKcE_E21_M_not_empty_functionIS7_EEbRKT_>
    598c:	e1a03000 	mov	r3, r0
    5990:	e3530000 	cmp	r3, #0
    5994:	0a00000f 	beq	59d8 <_ZNSt8functionIFvPKcEEC2IZ11ToStringPtrP7JNIEnv_P8_jstringEUlS1_E_vEET_+0x84>
    5998:	e51b4010 	ldr	r4, [fp, #-16]
    599c:	e24b3018 	sub	r3, fp, #24
    59a0:	e1a00003 	mov	r0, r3
    59a4:	ebffffe1 	bl	5930 <_ZSt4moveIRZ11ToStringPtrP7JNIEnv_P8_jstringEUlPKcE_EONSt16remove_referenceIT_E4typeEOS9_>
    59a8:	e1a03000 	mov	r3, r0
    59ac:	e1a00004 	mov	r0, r4
    59b0:	e1a01003 	mov	r1, r3
    59b4:	eb00001b 	bl	5a28 <_ZNSt14_Function_base13_Base_managerIZ11ToStringPtrP7JNIEnv_P8_jstringEUlPKcE_E15_M_init_functorERSt9_Any_dataOS7_>
    59b8:	e51b3010 	ldr	r3, [fp, #-16]
    59bc:	e59f2038 	ldr	r2, [pc, #56]	; 59fc <_ZNSt8functionIFvPKcEEC2IZ11ToStringPtrP7JNIEnv_P8_jstringEUlS1_E_vEET_+0xa8>
    59c0:	e08f2002 	add	r2, pc, r2
    59c4:	e583200c 	str	r2, [r3, #12]
    59c8:	e51b3010 	ldr	r3, [fp, #-16]
    59cc:	e59f202c 	ldr	r2, [pc, #44]	; 5a00 <_ZNSt8functionIFvPKcEEC2IZ11ToStringPtrP7JNIEnv_P8_jstringEUlS1_E_vEET_+0xac>
    59d0:	e08f2002 	add	r2, pc, r2
    59d4:	e5832008 	str	r2, [r3, #8]
    59d8:	e51b3010 	ldr	r3, [fp, #-16]
    59dc:	ea000003 	b	59f0 <_ZNSt8functionIFvPKcEEC2IZ11ToStringPtrP7JNIEnv_P8_jstringEUlS1_E_vEET_+0x9c>
    59e0:	e51b3010 	ldr	r3, [fp, #-16]
    59e4:	e1a00003 	mov	r0, r3
    59e8:	ebfffe15 	bl	5244 <_ZNSt14_Function_baseD2Ev@plt>
    59ec:	ebfffdba 	bl	50dc <__cxa_end_cleanup@plt>
    59f0:	e1a00003 	mov	r0, r3
    59f4:	e24bd008 	sub	sp, fp, #8
    59f8:	e8bd8810 	pop	{r4, fp, pc}
    59fc:	00000098 	muleq	r0, r8, r0
    5a00:	000000d0 	ldrdeq	r0, [r0], -r0	; <UNPREDICTABLE>

00005a04 <_ZNSt14_Function_base13_Base_managerIZ11ToStringPtrP7JNIEnv_P8_jstringEUlPKcE_E21_M_not_empty_functionIS7_EEbRKT_>:
    5a04:	e52db004 	push	{fp}		; (str fp, [sp, #-4]!)
    5a08:	e28db000 	add	fp, sp, #0
    5a0c:	e24dd00c 	sub	sp, sp, #12
    5a10:	e50b0008 	str	r0, [fp, #-8]
    5a14:	e3a03001 	mov	r3, #1
    5a18:	e1a00003 	mov	r0, r3
    5a1c:	e24bd000 	sub	sp, fp, #0
    5a20:	e49db004 	pop	{fp}		; (ldr fp, [sp], #4)
    5a24:	e12fff1e 	bx	lr

00005a28 <_ZNSt14_Function_base13_Base_managerIZ11ToStringPtrP7JNIEnv_P8_jstringEUlPKcE_E15_M_init_functorERSt9_Any_dataOS7_>:
    5a28:	e92d4810 	push	{r4, fp, lr}
    5a2c:	e28db008 	add	fp, sp, #8
    5a30:	e24dd014 	sub	sp, sp, #20
    5a34:	e50b0018 	str	r0, [fp, #-24]	; 0xffffffe8
    5a38:	e50b101c 	str	r1, [fp, #-28]	; 0xffffffe4
    5a3c:	e51b001c 	ldr	r0, [fp, #-28]	; 0xffffffe4
    5a40:	ebffffba 	bl	5930 <_ZSt4moveIRZ11ToStringPtrP7JNIEnv_P8_jstringEUlPKcE_EONSt16remove_referenceIT_E4typeEOS9_>
    5a44:	e1a03000 	mov	r3, r0
    5a48:	e51b0018 	ldr	r0, [fp, #-24]	; 0xffffffe8
    5a4c:	e1a01003 	mov	r1, r3
    5a50:	e1a02004 	mov	r2, r4
    5a54:	eb00003e 	bl	5b54 <_ZNSt14_Function_base13_Base_managerIZ11ToStringPtrP7JNIEnv_P8_jstringEUlPKcE_E15_M_init_functorERSt9_Any_dataOS7_St17integral_constantIbLb0EE>
    5a58:	e24bd008 	sub	sp, fp, #8
    5a5c:	e8bd8810 	pop	{r4, fp, pc}

00005a60 <_ZNSt17_Function_handlerIFvPKcEZ11ToStringPtrP7JNIEnv_P8_jstringEUlS1_E_E9_M_invokeERKSt9_Any_dataS1_>:
    5a60:	e92d4810 	push	{r4, fp, lr}
    5a64:	e28db008 	add	fp, sp, #8
    5a68:	e24dd00c 	sub	sp, sp, #12
    5a6c:	e50b0010 	str	r0, [fp, #-16]
    5a70:	e50b1014 	str	r1, [fp, #-20]	; 0xffffffec
    5a74:	e51b0010 	ldr	r0, [fp, #-16]
    5a78:	eb00004b 	bl	5bac <_ZNSt14_Function_base13_Base_managerIZ11ToStringPtrP7JNIEnv_P8_jstringEUlPKcE_E14_M_get_pointerERKSt9_Any_data>
    5a7c:	e1a04000 	mov	r4, r0
    5a80:	e24b3014 	sub	r3, fp, #20
    5a84:	e1a00003 	mov	r0, r3
    5a88:	ebfffdba 	bl	5178 <_ZSt7forwardIPKcEOT_RNSt16remove_referenceIS2_E4typeE@plt>
    5a8c:	e1a03000 	mov	r3, r0
    5a90:	e5933000 	ldr	r3, [r3]
    5a94:	e1a00004 	mov	r0, r4
    5a98:	e1a01003 	mov	r1, r3
    5a9c:	ebfffee1 	bl	5628 <_ZZ11ToStringPtrP7JNIEnv_P8_jstringENKUlPKcE_clES4_>
    5aa0:	e24bd008 	sub	sp, fp, #8
    5aa4:	e8bd8810 	pop	{r4, fp, pc}

00005aa8 <_ZNSt14_Function_base13_Base_managerIZ11ToStringPtrP7JNIEnv_P8_jstringEUlPKcE_E10_M_managerERSt9_Any_dataRKS9_St18_Manager_operation>:
    5aa8:	e92d4810 	push	{r4, fp, lr}
    5aac:	e28db008 	add	fp, sp, #8
    5ab0:	e24dd01c 	sub	sp, sp, #28
    5ab4:	e50b0018 	str	r0, [fp, #-24]	; 0xffffffe8
    5ab8:	e50b101c 	str	r1, [fp, #-28]	; 0xffffffe4
    5abc:	e50b2020 	str	r2, [fp, #-32]	; 0xffffffe0
    5ac0:	e51b3020 	ldr	r3, [fp, #-32]	; 0xffffffe0
    5ac4:	e3530003 	cmp	r3, #3
    5ac8:	908ff103 	addls	pc, pc, r3, lsl #2
    5acc:	ea00001b 	b	5b40 <_ZNSt14_Function_base13_Base_managerIZ11ToStringPtrP7JNIEnv_P8_jstringEUlPKcE_E10_M_managerERSt9_Any_dataRKS9_St18_Manager_operation+0x98>
    5ad0:	ea000002 	b	5ae0 <_ZNSt14_Function_base13_Base_managerIZ11ToStringPtrP7JNIEnv_P8_jstringEUlPKcE_E10_M_managerERSt9_Any_dataRKS9_St18_Manager_operation+0x38>
    5ad4:	ea000008 	b	5afc <_ZNSt14_Function_base13_Base_managerIZ11ToStringPtrP7JNIEnv_P8_jstringEUlPKcE_E10_M_managerERSt9_Any_dataRKS9_St18_Manager_operation+0x54>
    5ad8:	ea00000f 	b	5b1c <_ZNSt14_Function_base13_Base_managerIZ11ToStringPtrP7JNIEnv_P8_jstringEUlPKcE_E10_M_managerERSt9_Any_dataRKS9_St18_Manager_operation+0x74>
    5adc:	ea000013 	b	5b30 <_ZNSt14_Function_base13_Base_managerIZ11ToStringPtrP7JNIEnv_P8_jstringEUlPKcE_E10_M_managerERSt9_Any_dataRKS9_St18_Manager_operation+0x88>
    5ae0:	e51b0018 	ldr	r0, [fp, #-24]	; 0xffffffe8
    5ae4:	ebfffd3a 	bl	4fd4 <_ZNSt9_Any_data9_M_accessIPKSt9type_infoEERT_v@plt>
    5ae8:	e1a03000 	mov	r3, r0
    5aec:	e59f205c 	ldr	r2, [pc, #92]	; 5b50 <_ZNSt14_Function_base13_Base_managerIZ11ToStringPtrP7JNIEnv_P8_jstringEUlPKcE_E10_M_managerERSt9_Any_dataRKS9_St18_Manager_operation+0xa8>
    5af0:	e08f2002 	add	r2, pc, r2
    5af4:	e5832000 	str	r2, [r3]
    5af8:	ea000010 	b	5b40 <_ZNSt14_Function_base13_Base_managerIZ11ToStringPtrP7JNIEnv_P8_jstringEUlPKcE_E10_M_managerERSt9_Any_dataRKS9_St18_Manager_operation+0x98>
    5afc:	e51b0018 	ldr	r0, [fp, #-24]	; 0xffffffe8
    5b00:	eb000036 	bl	5be0 <_ZNSt9_Any_data9_M_accessIPZ11ToStringPtrP7JNIEnv_P8_jstringEUlPKcE_EERT_v>
    5b04:	e1a04000 	mov	r4, r0
    5b08:	e51b001c 	ldr	r0, [fp, #-28]	; 0xffffffe4
    5b0c:	eb000026 	bl	5bac <_ZNSt14_Function_base13_Base_managerIZ11ToStringPtrP7JNIEnv_P8_jstringEUlPKcE_E14_M_get_pointerERKSt9_Any_data>
    5b10:	e1a03000 	mov	r3, r0
    5b14:	e5843000 	str	r3, [r4]
    5b18:	ea000008 	b	5b40 <_ZNSt14_Function_base13_Base_managerIZ11ToStringPtrP7JNIEnv_P8_jstringEUlPKcE_E10_M_managerERSt9_Any_dataRKS9_St18_Manager_operation+0x98>
    5b1c:	e51b0018 	ldr	r0, [fp, #-24]	; 0xffffffe8
    5b20:	e51b101c 	ldr	r1, [fp, #-28]	; 0xffffffe4
    5b24:	e1a0200e 	mov	r2, lr
    5b28:	eb000036 	bl	5c08 <_ZNSt14_Function_base13_Base_managerIZ11ToStringPtrP7JNIEnv_P8_jstringEUlPKcE_E8_M_cloneERSt9_Any_dataRKS9_St17integral_constantIbLb0EE>
    5b2c:	ea000003 	b	5b40 <_ZNSt14_Function_base13_Base_managerIZ11ToStringPtrP7JNIEnv_P8_jstringEUlPKcE_E10_M_managerERSt9_Any_dataRKS9_St18_Manager_operation+0x98>
    5b30:	e51b0018 	ldr	r0, [fp, #-24]	; 0xffffffe8
    5b34:	e1a0100c 	mov	r1, ip
    5b38:	eb000049 	bl	5c64 <_ZNSt14_Function_base13_Base_managerIZ11ToStringPtrP7JNIEnv_P8_jstringEUlPKcE_E10_M_destroyERSt9_Any_dataSt17integral_constantIbLb0EE>
    5b3c:	e1a00000 	nop			; (mov r0, r0)
    5b40:	e3a03000 	mov	r3, #0
    5b44:	e1a00003 	mov	r0, r3
    5b48:	e24bd008 	sub	sp, fp, #8
    5b4c:	e8bd8810 	pop	{r4, fp, pc}
    5b50:	00012138 	andeq	r2, r1, r8, lsr r1

00005b54 <_ZNSt14_Function_base13_Base_managerIZ11ToStringPtrP7JNIEnv_P8_jstringEUlPKcE_E15_M_init_functorERSt9_Any_dataOS7_St17integral_constantIbLb0EE>:
    5b54:	e92d4830 	push	{r4, r5, fp, lr}
    5b58:	e28db00c 	add	fp, sp, #12
    5b5c:	e24dd010 	sub	sp, sp, #16
    5b60:	e50b0010 	str	r0, [fp, #-16]
    5b64:	e50b1014 	str	r1, [fp, #-20]	; 0xffffffec
    5b68:	e54b2018 	strb	r2, [fp, #-24]	; 0xffffffe8
    5b6c:	e51b0014 	ldr	r0, [fp, #-20]	; 0xffffffec
    5b70:	ebffff6e 	bl	5930 <_ZSt4moveIRZ11ToStringPtrP7JNIEnv_P8_jstringEUlPKcE_EONSt16remove_referenceIT_E4typeEOS9_>
    5b74:	e1a05000 	mov	r5, r0
    5b78:	e3a00008 	mov	r0, #8
    5b7c:	ebfffdb6 	bl	525c <_Znwj@plt>
    5b80:	e1a04000 	mov	r4, r0
    5b84:	e1a03004 	mov	r3, r4
    5b88:	e1a02005 	mov	r2, r5
    5b8c:	e8920003 	ldm	r2, {r0, r1}
    5b90:	e8830003 	stm	r3, {r0, r1}
    5b94:	e51b0010 	ldr	r0, [fp, #-16]
    5b98:	eb000010 	bl	5be0 <_ZNSt9_Any_data9_M_accessIPZ11ToStringPtrP7JNIEnv_P8_jstringEUlPKcE_EERT_v>
    5b9c:	e1a03000 	mov	r3, r0
    5ba0:	e5834000 	str	r4, [r3]
    5ba4:	e24bd00c 	sub	sp, fp, #12
    5ba8:	e8bd8830 	pop	{r4, r5, fp, pc}

00005bac <_ZNSt14_Function_base13_Base_managerIZ11ToStringPtrP7JNIEnv_P8_jstringEUlPKcE_E14_M_get_pointerERKSt9_Any_data>:
    5bac:	e92d4800 	push	{fp, lr}
    5bb0:	e28db004 	add	fp, sp, #4
    5bb4:	e24dd010 	sub	sp, sp, #16
    5bb8:	e50b0010 	str	r0, [fp, #-16]
    5bbc:	e51b0010 	ldr	r0, [fp, #-16]
    5bc0:	eb000034 	bl	5c98 <_ZNKSt9_Any_data9_M_accessIPZ11ToStringPtrP7JNIEnv_P8_jstringEUlPKcE_EERKT_v>
    5bc4:	e1a03000 	mov	r3, r0
    5bc8:	e5933000 	ldr	r3, [r3]
    5bcc:	e50b3008 	str	r3, [fp, #-8]
    5bd0:	e51b3008 	ldr	r3, [fp, #-8]
    5bd4:	e1a00003 	mov	r0, r3
    5bd8:	e24bd004 	sub	sp, fp, #4
    5bdc:	e8bd8800 	pop	{fp, pc}

00005be0 <_ZNSt9_Any_data9_M_accessIPZ11ToStringPtrP7JNIEnv_P8_jstringEUlPKcE_EERT_v>:
    5be0:	e92d4800 	push	{fp, lr}
    5be4:	e28db004 	add	fp, sp, #4
    5be8:	e24dd008 	sub	sp, sp, #8
    5bec:	e50b0008 	str	r0, [fp, #-8]
    5bf0:	e51b0008 	ldr	r0, [fp, #-8]
    5bf4:	ebfffccf 	bl	4f38 <_ZNSt9_Any_data9_M_accessEv@plt>
    5bf8:	e1a03000 	mov	r3, r0
    5bfc:	e1a00003 	mov	r0, r3
    5c00:	e24bd004 	sub	sp, fp, #4
    5c04:	e8bd8800 	pop	{fp, pc}

00005c08 <_ZNSt14_Function_base13_Base_managerIZ11ToStringPtrP7JNIEnv_P8_jstringEUlPKcE_E8_M_cloneERSt9_Any_dataRKS9_St17integral_constantIbLb0EE>:
    5c08:	e92d4830 	push	{r4, r5, fp, lr}
    5c0c:	e28db00c 	add	fp, sp, #12
    5c10:	e24dd010 	sub	sp, sp, #16
    5c14:	e50b0010 	str	r0, [fp, #-16]
    5c18:	e50b1014 	str	r1, [fp, #-20]	; 0xffffffec
    5c1c:	e54b2018 	strb	r2, [fp, #-24]	; 0xffffffe8
    5c20:	e51b0014 	ldr	r0, [fp, #-20]	; 0xffffffec
    5c24:	eb00001b 	bl	5c98 <_ZNKSt9_Any_data9_M_accessIPZ11ToStringPtrP7JNIEnv_P8_jstringEUlPKcE_EERKT_v>
    5c28:	e1a03000 	mov	r3, r0
    5c2c:	e5935000 	ldr	r5, [r3]
    5c30:	e3a00008 	mov	r0, #8
    5c34:	ebfffd88 	bl	525c <_Znwj@plt>
    5c38:	e1a04000 	mov	r4, r0
    5c3c:	e1a03004 	mov	r3, r4
    5c40:	e1a02005 	mov	r2, r5
    5c44:	e8920003 	ldm	r2, {r0, r1}
    5c48:	e8830003 	stm	r3, {r0, r1}
    5c4c:	e51b0010 	ldr	r0, [fp, #-16]
    5c50:	ebffffe2 	bl	5be0 <_ZNSt9_Any_data9_M_accessIPZ11ToStringPtrP7JNIEnv_P8_jstringEUlPKcE_EERT_v>
    5c54:	e1a03000 	mov	r3, r0
    5c58:	e5834000 	str	r4, [r3]
    5c5c:	e24bd00c 	sub	sp, fp, #12
    5c60:	e8bd8830 	pop	{r4, r5, fp, pc}

00005c64 <_ZNSt14_Function_base13_Base_managerIZ11ToStringPtrP7JNIEnv_P8_jstringEUlPKcE_E10_M_destroyERSt9_Any_dataSt17integral_constantIbLb0EE>:
    5c64:	e92d4800 	push	{fp, lr}
    5c68:	e28db004 	add	fp, sp, #4
    5c6c:	e24dd008 	sub	sp, sp, #8
    5c70:	e50b0008 	str	r0, [fp, #-8]
    5c74:	e54b100c 	strb	r1, [fp, #-12]
    5c78:	e51b0008 	ldr	r0, [fp, #-8]
    5c7c:	ebffffd7 	bl	5be0 <_ZNSt9_Any_data9_M_accessIPZ11ToStringPtrP7JNIEnv_P8_jstringEUlPKcE_EERT_v>
    5c80:	e1a03000 	mov	r3, r0
    5c84:	e5933000 	ldr	r3, [r3]
    5c88:	e1a00003 	mov	r0, r3
    5c8c:	ebfffceb 	bl	5040 <_ZdlPv@plt>
    5c90:	e24bd004 	sub	sp, fp, #4
    5c94:	e8bd8800 	pop	{fp, pc}

00005c98 <_ZNKSt9_Any_data9_M_accessIPZ11ToStringPtrP7JNIEnv_P8_jstringEUlPKcE_EERKT_v>:
    5c98:	e92d4800 	push	{fp, lr}
    5c9c:	e28db004 	add	fp, sp, #4
    5ca0:	e24dd008 	sub	sp, sp, #8
    5ca4:	e50b0008 	str	r0, [fp, #-8]
    5ca8:	e51b0008 	ldr	r0, [fp, #-8]
    5cac:	ebfffcda 	bl	501c <_ZNKSt9_Any_data9_M_accessEv@plt>
    5cb0:	e1a03000 	mov	r3, r0
    5cb4:	e1a00003 	mov	r0, r3
    5cb8:	e24bd004 	sub	sp, fp, #4
    5cbc:	e8bd8800 	pop	{fp, pc}

00005cc0 <_Z41__static_initialization_and_destruction_0ii>:
    5cc0:	e92d4810 	push	{r4, fp, lr}
    5cc4:	e28db008 	add	fp, sp, #8
    5cc8:	e24dd00c 	sub	sp, sp, #12
    5ccc:	e50b0010 	str	r0, [fp, #-16]
    5cd0:	e50b1014 	str	r1, [fp, #-20]	; 0xffffffec
    5cd4:	e59f405c 	ldr	r4, [pc, #92]	; 5d38 <_Z41__static_initialization_and_destruction_0ii+0x78>
    5cd8:	e08f4004 	add	r4, pc, r4
    5cdc:	e51b3010 	ldr	r3, [fp, #-16]
    5ce0:	e3530001 	cmp	r3, #1
    5ce4:	1a000011 	bne	5d30 <_Z41__static_initialization_and_destruction_0ii+0x70>
    5ce8:	e51b3014 	ldr	r3, [fp, #-20]	; 0xffffffec
    5cec:	e30f2fff 	movw	r2, #65535	; 0xffff
    5cf0:	e1530002 	cmp	r3, r2
    5cf4:	1a00000d 	bne	5d30 <_Z41__static_initialization_and_destruction_0ii+0x70>
    5cf8:	e59f303c 	ldr	r3, [pc, #60]	; 5d3c <_Z41__static_initialization_and_destruction_0ii+0x7c>
    5cfc:	e08f3003 	add	r3, pc, r3
    5d00:	e1a00003 	mov	r0, r3
    5d04:	ebfffcdc 	bl	507c <_ZNSt8ios_base4InitC1Ev@plt>
    5d08:	e59f3030 	ldr	r3, [pc, #48]	; 5d40 <_Z41__static_initialization_and_destruction_0ii+0x80>
    5d0c:	e08f3003 	add	r3, pc, r3
    5d10:	e1a00003 	mov	r0, r3
    5d14:	e59f3028 	ldr	r3, [pc, #40]	; 5d44 <_Z41__static_initialization_and_destruction_0ii+0x84>
    5d18:	e7943003 	ldr	r3, [r4, r3]
    5d1c:	e1a01003 	mov	r1, r3
    5d20:	e59f3020 	ldr	r3, [pc, #32]	; 5d48 <_Z41__static_initialization_and_destruction_0ii+0x88>
    5d24:	e08f3003 	add	r3, pc, r3
    5d28:	e1a02003 	mov	r2, r3
    5d2c:	ebfffd89 	bl	5358 <__aeabi_atexit@plt>
    5d30:	e24bd008 	sub	sp, fp, #8
    5d34:	e8bd8810 	pop	{r4, fp, pc}
    5d38:	00012094 	muleq	r1, r4, r0
    5d3c:	00012278 	andeq	r2, r1, r8, ror r2
    5d40:	00012268 	andeq	r2, r1, r8, ror #4
    5d44:	000001e0 	andeq	r0, r0, r0, ror #3
    5d48:	00012248 	andeq	r2, r1, r8, asr #4

00005d4c <_GLOBAL__sub_I_HelloJNIImpl.cpp>:
    5d4c:	e92d4800 	push	{fp, lr}
    5d50:	e28db004 	add	fp, sp, #4
    5d54:	e3a00001 	mov	r0, #1
    5d58:	e30f1fff 	movw	r1, #65535	; 0xffff
    5d5c:	ebffffd7 	bl	5cc0 <_Z41__static_initialization_and_destruction_0ii>
    5d60:	e8bd8800 	pop	{fp, pc}

00005d64 <_ZnwjPv>:
    5d64:	e52db004 	push	{fp}		; (str fp, [sp, #-4]!)
    5d68:	e28db000 	add	fp, sp, #0
    5d6c:	e24dd00c 	sub	sp, sp, #12
    5d70:	e50b0008 	str	r0, [fp, #-8]
    5d74:	e50b100c 	str	r1, [fp, #-12]
    5d78:	e51b300c 	ldr	r3, [fp, #-12]
    5d7c:	e1a00003 	mov	r0, r3
    5d80:	e24bd000 	sub	sp, fp, #0
    5d84:	e49db004 	pop	{fp}		; (ldr fp, [sp], #4)
    5d88:	e12fff1e 	bx	lr

00005d8c <_ZNSt9_Any_data9_M_accessEv>:
    5d8c:	e52db004 	push	{fp}		; (str fp, [sp, #-4]!)
    5d90:	e28db000 	add	fp, sp, #0
    5d94:	e24dd00c 	sub	sp, sp, #12
    5d98:	e50b0008 	str	r0, [fp, #-8]
    5d9c:	e51b3008 	ldr	r3, [fp, #-8]
    5da0:	e1a00003 	mov	r0, r3
    5da4:	e24bd000 	sub	sp, fp, #0
    5da8:	e49db004 	pop	{fp}		; (ldr fp, [sp], #4)
    5dac:	e12fff1e 	bx	lr

00005db0 <_ZNKSt9_Any_data9_M_accessEv>:
    5db0:	e52db004 	push	{fp}		; (str fp, [sp, #-4]!)
    5db4:	e28db000 	add	fp, sp, #0
    5db8:	e24dd00c 	sub	sp, sp, #12
    5dbc:	e50b0008 	str	r0, [fp, #-8]
    5dc0:	e51b3008 	ldr	r3, [fp, #-8]
    5dc4:	e1a00003 	mov	r0, r3
    5dc8:	e24bd000 	sub	sp, fp, #0
    5dcc:	e49db004 	pop	{fp}		; (ldr fp, [sp], #4)
    5dd0:	e12fff1e 	bx	lr

00005dd4 <_ZNSt14_Function_baseC1Ev>:
    5dd4:	e52db004 	push	{fp}		; (str fp, [sp, #-4]!)
    5dd8:	e28db000 	add	fp, sp, #0
    5ddc:	e24dd00c 	sub	sp, sp, #12
    5de0:	e50b0008 	str	r0, [fp, #-8]
    5de4:	e51b3008 	ldr	r3, [fp, #-8]
    5de8:	e3a02000 	mov	r2, #0
    5dec:	e5832008 	str	r2, [r3, #8]
    5df0:	e51b3008 	ldr	r3, [fp, #-8]
    5df4:	e1a00003 	mov	r0, r3
    5df8:	e24bd000 	sub	sp, fp, #0
    5dfc:	e49db004 	pop	{fp}		; (ldr fp, [sp], #4)
    5e00:	e12fff1e 	bx	lr

00005e04 <_ZNSt14_Function_baseD1Ev>:
    5e04:	e92d4800 	push	{fp, lr}
    5e08:	e28db004 	add	fp, sp, #4
    5e0c:	e24dd008 	sub	sp, sp, #8
    5e10:	e50b0008 	str	r0, [fp, #-8]
    5e14:	e51b3008 	ldr	r3, [fp, #-8]
    5e18:	e5933008 	ldr	r3, [r3, #8]
    5e1c:	e3530000 	cmp	r3, #0
    5e20:	0a000007 	beq	5e44 <_ZNSt14_Function_baseD1Ev+0x40>
    5e24:	e51b3008 	ldr	r3, [fp, #-8]
    5e28:	e5933008 	ldr	r3, [r3, #8]
    5e2c:	e51b1008 	ldr	r1, [fp, #-8]
    5e30:	e51b2008 	ldr	r2, [fp, #-8]
    5e34:	e1a00001 	mov	r0, r1
    5e38:	e1a01002 	mov	r1, r2
    5e3c:	e3a02003 	mov	r2, #3
    5e40:	e12fff33 	blx	r3
    5e44:	e51b3008 	ldr	r3, [fp, #-8]
    5e48:	e1a00003 	mov	r0, r3
    5e4c:	e24bd004 	sub	sp, fp, #4
    5e50:	e8bd8800 	pop	{fp, pc}

00005e54 <_ZNKSt14_Function_base8_M_emptyEv>:
    5e54:	e52db004 	push	{fp}		; (str fp, [sp, #-4]!)
    5e58:	e28db000 	add	fp, sp, #0
    5e5c:	e24dd00c 	sub	sp, sp, #12
    5e60:	e50b0008 	str	r0, [fp, #-8]
    5e64:	e51b3008 	ldr	r3, [fp, #-8]
    5e68:	e5933008 	ldr	r3, [r3, #8]
    5e6c:	e3530000 	cmp	r3, #0
    5e70:	03a03001 	moveq	r3, #1
    5e74:	13a03000 	movne	r3, #0
    5e78:	e6ef3073 	uxtb	r3, r3
    5e7c:	e1a00003 	mov	r0, r3
    5e80:	e24bd000 	sub	sp, fp, #0
    5e84:	e49db004 	pop	{fp}		; (ldr fp, [sp], #4)
    5e88:	e12fff1e 	bx	lr

00005e8c <_ZN7JNIEnv_12NewStringUTFEPKc>:
    5e8c:	e92d4800 	push	{fp, lr}
    5e90:	e28db004 	add	fp, sp, #4
    5e94:	e24dd008 	sub	sp, sp, #8
    5e98:	e50b0008 	str	r0, [fp, #-8]
    5e9c:	e50b100c 	str	r1, [fp, #-12]
    5ea0:	e51b3008 	ldr	r3, [fp, #-8]
    5ea4:	e5933000 	ldr	r3, [r3]
    5ea8:	e593329c 	ldr	r3, [r3, #668]	; 0x29c
    5eac:	e51b0008 	ldr	r0, [fp, #-8]
    5eb0:	e51b100c 	ldr	r1, [fp, #-12]
    5eb4:	e12fff33 	blx	r3
    5eb8:	e1a03000 	mov	r3, r0
    5ebc:	e1a00003 	mov	r0, r3
    5ec0:	e24bd004 	sub	sp, fp, #4
    5ec4:	e8bd8800 	pop	{fp, pc}

00005ec8 <_ZN7JNIEnv_17GetStringUTFCharsEP8_jstringPh>:
    5ec8:	e92d4800 	push	{fp, lr}
    5ecc:	e28db004 	add	fp, sp, #4
    5ed0:	e24dd010 	sub	sp, sp, #16
    5ed4:	e50b0008 	str	r0, [fp, #-8]
    5ed8:	e50b100c 	str	r1, [fp, #-12]
    5edc:	e50b2010 	str	r2, [fp, #-16]
    5ee0:	e51b3008 	ldr	r3, [fp, #-8]
    5ee4:	e5933000 	ldr	r3, [r3]
    5ee8:	e59332a4 	ldr	r3, [r3, #676]	; 0x2a4
    5eec:	e51b0008 	ldr	r0, [fp, #-8]
    5ef0:	e51b100c 	ldr	r1, [fp, #-12]
    5ef4:	e51b2010 	ldr	r2, [fp, #-16]
    5ef8:	e12fff33 	blx	r3
    5efc:	e1a03000 	mov	r3, r0
    5f00:	e1a00003 	mov	r0, r3
    5f04:	e24bd004 	sub	sp, fp, #4
    5f08:	e8bd8800 	pop	{fp, pc}

00005f0c <_ZN7JNIEnv_21ReleaseStringUTFCharsEP8_jstringPKc>:
    5f0c:	e92d4800 	push	{fp, lr}
    5f10:	e28db004 	add	fp, sp, #4
    5f14:	e24dd010 	sub	sp, sp, #16
    5f18:	e50b0008 	str	r0, [fp, #-8]
    5f1c:	e50b100c 	str	r1, [fp, #-12]
    5f20:	e50b2010 	str	r2, [fp, #-16]
    5f24:	e51b3008 	ldr	r3, [fp, #-8]
    5f28:	e5933000 	ldr	r3, [r3]
    5f2c:	e59332a8 	ldr	r3, [r3, #680]	; 0x2a8
    5f30:	e51b0008 	ldr	r0, [fp, #-8]
    5f34:	e51b100c 	ldr	r1, [fp, #-12]
    5f38:	e51b2010 	ldr	r2, [fp, #-16]
    5f3c:	e12fff33 	blx	r3
    5f40:	e24bd004 	sub	sp, fp, #4
    5f44:	e8bd8800 	pop	{fp, pc}

00005f48 <_ZN15jstring_deleterC1EP7JNIEnv_P8_jstring>:
    5f48:	e52db004 	push	{fp}		; (str fp, [sp, #-4]!)
    5f4c:	e28db000 	add	fp, sp, #0
    5f50:	e24dd014 	sub	sp, sp, #20
    5f54:	e50b0008 	str	r0, [fp, #-8]
    5f58:	e50b100c 	str	r1, [fp, #-12]
    5f5c:	e50b2010 	str	r2, [fp, #-16]
    5f60:	e51b3008 	ldr	r3, [fp, #-8]
    5f64:	e51b200c 	ldr	r2, [fp, #-12]
    5f68:	e5832000 	str	r2, [r3]
    5f6c:	e51b3008 	ldr	r3, [fp, #-8]
    5f70:	e51b2010 	ldr	r2, [fp, #-16]
    5f74:	e5832004 	str	r2, [r3, #4]
    5f78:	e51b3008 	ldr	r3, [fp, #-8]
    5f7c:	e1a00003 	mov	r0, r3
    5f80:	e24bd000 	sub	sp, fp, #0
    5f84:	e49db004 	pop	{fp}		; (ldr fp, [sp], #4)
    5f88:	e12fff1e 	bx	lr

00005f8c <_ZN15jstring_deleterclEPKc>:
    5f8c:	e92d4810 	push	{r4, fp, lr}
    5f90:	e28db008 	add	fp, sp, #8
    5f94:	e24dd00c 	sub	sp, sp, #12
    5f98:	e50b0010 	str	r0, [fp, #-16]
    5f9c:	e50b1014 	str	r1, [fp, #-20]	; 0xffffffec
    5fa0:	e59f406c 	ldr	r4, [pc, #108]	; 6014 <_ZN15jstring_deleterclEPKc+0x88>
    5fa4:	e08f4004 	add	r4, pc, r4
    5fa8:	e59f3068 	ldr	r3, [pc, #104]	; 6018 <_ZN15jstring_deleterclEPKc+0x8c>
    5fac:	e7943003 	ldr	r3, [r4, r3]
    5fb0:	e1a00003 	mov	r0, r3
    5fb4:	e59f3060 	ldr	r3, [pc, #96]	; 601c <_ZN15jstring_deleterclEPKc+0x90>
    5fb8:	e08f3003 	add	r3, pc, r3
    5fbc:	e1a01003 	mov	r1, r3
    5fc0:	ebfffc4b 	bl	50f4 <_ZStlsISt11char_traitsIcEERSt13basic_ostreamIcT_ES5_PKc@plt>
    5fc4:	e1a03000 	mov	r3, r0
    5fc8:	e1a00003 	mov	r0, r3
    5fcc:	e51b1014 	ldr	r1, [fp, #-20]	; 0xffffffec
    5fd0:	ebfffc47 	bl	50f4 <_ZStlsISt11char_traitsIcEERSt13basic_ostreamIcT_ES5_PKc@plt>
    5fd4:	e1a03000 	mov	r3, r0
    5fd8:	e1a00003 	mov	r0, r3
    5fdc:	e59f303c 	ldr	r3, [pc, #60]	; 6020 <_ZN15jstring_deleterclEPKc+0x94>
    5fe0:	e7943003 	ldr	r3, [r4, r3]
    5fe4:	e1a01003 	mov	r1, r3
    5fe8:	ebfffce6 	bl	5388 <_ZNSolsEPFRSoS_E@plt>
    5fec:	e51b3010 	ldr	r3, [fp, #-16]
    5ff0:	e5932000 	ldr	r2, [r3]
    5ff4:	e51b3010 	ldr	r3, [fp, #-16]
    5ff8:	e5933004 	ldr	r3, [r3, #4]
    5ffc:	e1a00002 	mov	r0, r2
    6000:	e1a01003 	mov	r1, r3
    6004:	e51b2014 	ldr	r2, [fp, #-20]	; 0xffffffec
    6008:	ebfffc60 	bl	5190 <_ZN7JNIEnv_21ReleaseStringUTFCharsEP8_jstringPKc@plt>
    600c:	e24bd008 	sub	sp, fp, #8
    6010:	e8bd8810 	pop	{r4, fp, pc}
    6014:	00011dc8 	andeq	r1, r1, r8, asr #27
    6018:	000001ec 	andeq	r0, r0, ip, ror #3
    601c:	000015ac 	andeq	r1, r0, ip, lsr #11
    6020:	000001f8 	strdeq	r0, [r0], -r8

00006024 <_ZNSt8functionIFvPKcEED1Ev>:
    6024:	e92d4800 	push	{fp, lr}
    6028:	e28db004 	add	fp, sp, #4
    602c:	e24dd008 	sub	sp, sp, #8
    6030:	e50b0008 	str	r0, [fp, #-8]
    6034:	e51b3008 	ldr	r3, [fp, #-8]
    6038:	e1a00003 	mov	r0, r3
    603c:	ebfffc80 	bl	5244 <_ZNSt14_Function_baseD2Ev@plt>
    6040:	e51b3008 	ldr	r3, [fp, #-8]
    6044:	e1a00003 	mov	r0, r3
    6048:	e24bd004 	sub	sp, fp, #4
    604c:	e8bd8800 	pop	{fp, pc}

00006050 <_ZSt7forwardIRPKcEOT_RNSt16remove_referenceIS3_E4typeE>:
    6050:	e52db004 	push	{fp}		; (str fp, [sp, #-4]!)
    6054:	e28db000 	add	fp, sp, #0
    6058:	e24dd00c 	sub	sp, sp, #12
    605c:	e50b0008 	str	r0, [fp, #-8]
    6060:	e51b3008 	ldr	r3, [fp, #-8]
    6064:	e1a00003 	mov	r0, r3
    6068:	e24bd000 	sub	sp, fp, #0
    606c:	e49db004 	pop	{fp}		; (ldr fp, [sp], #4)
    6070:	e12fff1e 	bx	lr

00006074 <_ZSt7forwardIRK15jstring_deleterEOT_RNSt16remove_referenceIS3_E4typeE>:
    6074:	e52db004 	push	{fp}		; (str fp, [sp, #-4]!)
    6078:	e28db000 	add	fp, sp, #0
    607c:	e24dd00c 	sub	sp, sp, #12
    6080:	e50b0008 	str	r0, [fp, #-8]
    6084:	e51b3008 	ldr	r3, [fp, #-8]
    6088:	e1a00003 	mov	r0, r3
    608c:	e24bd000 	sub	sp, fp, #0
    6090:	e49db004 	pop	{fp}		; (ldr fp, [sp], #4)
    6094:	e12fff1e 	bx	lr

00006098 <_ZNSt11_Tuple_implILj2EIEEC1Ev>:
    6098:	e52db004 	push	{fp}		; (str fp, [sp, #-4]!)
    609c:	e28db000 	add	fp, sp, #0
    60a0:	e24dd00c 	sub	sp, sp, #12
    60a4:	e50b0008 	str	r0, [fp, #-8]
    60a8:	e51b3008 	ldr	r3, [fp, #-8]
    60ac:	e1a00003 	mov	r0, r3
    60b0:	e24bd000 	sub	sp, fp, #0
    60b4:	e49db004 	pop	{fp}		; (ldr fp, [sp], #4)
    60b8:	e12fff1e 	bx	lr

000060bc <_ZNSt10_Head_baseILj1E15jstring_deleterLb0EEC1ERKS0_>:
    60bc:	e52db004 	push	{fp}		; (str fp, [sp, #-4]!)
    60c0:	e28db000 	add	fp, sp, #0
    60c4:	e24dd00c 	sub	sp, sp, #12
    60c8:	e50b0008 	str	r0, [fp, #-8]
    60cc:	e50b100c 	str	r1, [fp, #-12]
    60d0:	e51b3008 	ldr	r3, [fp, #-8]
    60d4:	e51b200c 	ldr	r2, [fp, #-12]
    60d8:	e8920003 	ldm	r2, {r0, r1}
    60dc:	e8830003 	stm	r3, {r0, r1}
    60e0:	e51b3008 	ldr	r3, [fp, #-8]
    60e4:	e1a00003 	mov	r0, r3
    60e8:	e24bd000 	sub	sp, fp, #0
    60ec:	e49db004 	pop	{fp}		; (ldr fp, [sp], #4)
    60f0:	e12fff1e 	bx	lr

000060f4 <_ZNSt11_Tuple_implILj1EI15jstring_deleterEEC1ERKS0_>:
    60f4:	e92d4800 	push	{fp, lr}
    60f8:	e28db004 	add	fp, sp, #4
    60fc:	e24dd008 	sub	sp, sp, #8
    6100:	e50b0008 	str	r0, [fp, #-8]
    6104:	e50b100c 	str	r1, [fp, #-12]
    6108:	e51b0008 	ldr	r0, [fp, #-8]
    610c:	ebfffbaa 	bl	4fbc <_ZNSt11_Tuple_implILj2EIEEC2Ev@plt>
    6110:	e51b3008 	ldr	r3, [fp, #-8]
    6114:	e1a00003 	mov	r0, r3
    6118:	e51b100c 	ldr	r1, [fp, #-12]
    611c:	ebfffba9 	bl	4fc8 <_ZNSt10_Head_baseILj1E15jstring_deleterLb0EEC2ERKS0_@plt>
    6120:	e51b3008 	ldr	r3, [fp, #-8]
    6124:	e1a00003 	mov	r0, r3
    6128:	e24bd004 	sub	sp, fp, #4
    612c:	e8bd8800 	pop	{fp, pc}

00006130 <_ZNSt10_Head_baseILj0EPKcLb0EEC1IRS1_EEOT_>:
    6130:	e92d4800 	push	{fp, lr}
    6134:	e28db004 	add	fp, sp, #4
    6138:	e24dd008 	sub	sp, sp, #8
    613c:	e50b0008 	str	r0, [fp, #-8]
    6140:	e50b100c 	str	r1, [fp, #-12]
    6144:	e51b000c 	ldr	r0, [fp, #-12]
    6148:	ebfffbf5 	bl	5124 <_ZSt7forwardIRPKcEOT_RNSt16remove_referenceIS3_E4typeE@plt>
    614c:	e1a03000 	mov	r3, r0
    6150:	e5932000 	ldr	r2, [r3]
    6154:	e51b3008 	ldr	r3, [fp, #-8]
    6158:	e5832000 	str	r2, [r3]
    615c:	e51b3008 	ldr	r3, [fp, #-8]
    6160:	e1a00003 	mov	r0, r3
    6164:	e24bd004 	sub	sp, fp, #4
    6168:	e8bd8800 	pop	{fp, pc}

0000616c <_ZNSt11_Tuple_implILj0EIPKc15jstring_deleterEEC1IRS1_IRKS2_EvEEOT_DpOT0_>:
    616c:	e92d4810 	push	{r4, fp, lr}
    6170:	e28db008 	add	fp, sp, #8
    6174:	e24dd014 	sub	sp, sp, #20
    6178:	e50b0010 	str	r0, [fp, #-16]
    617c:	e50b1014 	str	r1, [fp, #-20]	; 0xffffffec
    6180:	e50b2018 	str	r2, [fp, #-24]	; 0xffffffe8
    6184:	e51b4010 	ldr	r4, [fp, #-16]
    6188:	e51b0018 	ldr	r0, [fp, #-24]	; 0xffffffe8
    618c:	ebfffc3b 	bl	5280 <_ZSt7forwardIRK15jstring_deleterEOT_RNSt16remove_referenceIS3_E4typeE@plt>
    6190:	e1a03000 	mov	r3, r0
    6194:	e1a00004 	mov	r0, r4
    6198:	e1a01003 	mov	r1, r3
    619c:	ebfffb74 	bl	4f74 <_ZNSt11_Tuple_implILj1EI15jstring_deleterEEC2ERKS0_@plt>
    61a0:	e51b3010 	ldr	r3, [fp, #-16]
    61a4:	e2834008 	add	r4, r3, #8
    61a8:	e51b0014 	ldr	r0, [fp, #-20]	; 0xffffffec
    61ac:	ebfffbdc 	bl	5124 <_ZSt7forwardIRPKcEOT_RNSt16remove_referenceIS3_E4typeE@plt>
    61b0:	e1a03000 	mov	r3, r0
    61b4:	e1a00004 	mov	r0, r4
    61b8:	e1a01003 	mov	r1, r3
    61bc:	ebfffc11 	bl	5208 <_ZNSt10_Head_baseILj0EPKcLb0EEC2IRS1_EEOT_@plt>
    61c0:	e51b3010 	ldr	r3, [fp, #-16]
    61c4:	e1a00003 	mov	r0, r3
    61c8:	e24bd008 	sub	sp, fp, #8
    61cc:	e8bd8810 	pop	{r4, fp, pc}

000061d0 <_ZNSt5tupleIIPKc15jstring_deleterEEC1IRS1_RKS2_vEEOT_OT0_>:
    61d0:	e92d4830 	push	{r4, r5, fp, lr}
    61d4:	e28db00c 	add	fp, sp, #12
    61d8:	e24dd010 	sub	sp, sp, #16
    61dc:	e50b0010 	str	r0, [fp, #-16]
    61e0:	e50b1014 	str	r1, [fp, #-20]	; 0xffffffec
    61e4:	e50b2018 	str	r2, [fp, #-24]	; 0xffffffe8
    61e8:	e51b4010 	ldr	r4, [fp, #-16]
    61ec:	e51b0014 	ldr	r0, [fp, #-20]	; 0xffffffec
    61f0:	ebfffbcb 	bl	5124 <_ZSt7forwardIRPKcEOT_RNSt16remove_referenceIS3_E4typeE@plt>
    61f4:	e1a05000 	mov	r5, r0
    61f8:	e51b0018 	ldr	r0, [fp, #-24]	; 0xffffffe8
    61fc:	ebfffc1f 	bl	5280 <_ZSt7forwardIRK15jstring_deleterEOT_RNSt16remove_referenceIS3_E4typeE@plt>
    6200:	e1a03000 	mov	r3, r0
    6204:	e1a00004 	mov	r0, r4
    6208:	e1a01005 	mov	r1, r5
    620c:	e1a02003 	mov	r2, r3
    6210:	ebfffba8 	bl	50b8 <_ZNSt11_Tuple_implILj0EIPKc15jstring_deleterEEC2IRS1_IRKS2_EvEEOT_DpOT0_@plt>
    6214:	e51b3010 	ldr	r3, [fp, #-16]
    6218:	e1a00003 	mov	r0, r3
    621c:	e24bd00c 	sub	sp, fp, #12
    6220:	e8bd8830 	pop	{r4, r5, fp, pc}

00006224 <_ZNSt10unique_ptrIKc15jstring_deleterEC1EPS0_RKS1_>:
    6224:	e92d4800 	push	{fp, lr}
    6228:	e28db004 	add	fp, sp, #4
    622c:	e24dd010 	sub	sp, sp, #16
    6230:	e50b0008 	str	r0, [fp, #-8]
    6234:	e50b100c 	str	r1, [fp, #-12]
    6238:	e50b2010 	str	r2, [fp, #-16]
    623c:	e51b2008 	ldr	r2, [fp, #-8]
    6240:	e24b300c 	sub	r3, fp, #12
    6244:	e1a00002 	mov	r0, r2
    6248:	e1a01003 	mov	r1, r3
    624c:	e51b2010 	ldr	r2, [fp, #-16]
    6250:	ebfffbe9 	bl	51fc <_ZNSt5tupleIIPKc15jstring_deleterEEC1IRS1_RKS2_vEEOT_OT0_@plt>
    6254:	e51b3008 	ldr	r3, [fp, #-8]
    6258:	e1a00003 	mov	r0, r3
    625c:	e24bd004 	sub	sp, fp, #4
    6260:	e8bd8800 	pop	{fp, pc}

00006264 <_ZNSt10_Head_baseILj0EPKcLb0EE7_M_headERS2_>:
    6264:	e52db004 	push	{fp}		; (str fp, [sp, #-4]!)
    6268:	e28db000 	add	fp, sp, #0
    626c:	e24dd00c 	sub	sp, sp, #12
    6270:	e50b0008 	str	r0, [fp, #-8]
    6274:	e51b3008 	ldr	r3, [fp, #-8]
    6278:	e1a00003 	mov	r0, r3
    627c:	e24bd000 	sub	sp, fp, #0
    6280:	e49db004 	pop	{fp}		; (ldr fp, [sp], #4)
    6284:	e12fff1e 	bx	lr

00006288 <_ZNSt11_Tuple_implILj0EIPKc15jstring_deleterEE7_M_headERS3_>:
    6288:	e92d4800 	push	{fp, lr}
    628c:	e28db004 	add	fp, sp, #4
    6290:	e24dd008 	sub	sp, sp, #8
    6294:	e50b0008 	str	r0, [fp, #-8]
    6298:	e51b3008 	ldr	r3, [fp, #-8]
    629c:	e2833008 	add	r3, r3, #8
    62a0:	e1a00003 	mov	r0, r3
    62a4:	ebfffc31 	bl	5370 <_ZNSt10_Head_baseILj0EPKcLb0EE7_M_headERS2_@plt>
    62a8:	e1a03000 	mov	r3, r0
    62ac:	e1a00003 	mov	r0, r3
    62b0:	e24bd004 	sub	sp, fp, #4
    62b4:	e8bd8800 	pop	{fp, pc}

000062b8 <_ZSt12__get_helperILj0EPKcI15jstring_deleterEENSt9__add_refIT0_E4typeERSt11_Tuple_implIXT_EIS4_DpT1_EE>:
    62b8:	e92d4800 	push	{fp, lr}
    62bc:	e28db004 	add	fp, sp, #4
    62c0:	e24dd008 	sub	sp, sp, #8
    62c4:	e50b0008 	str	r0, [fp, #-8]
    62c8:	e51b0008 	ldr	r0, [fp, #-8]
    62cc:	ebfffb22 	bl	4f5c <_ZNSt11_Tuple_implILj0EIPKc15jstring_deleterEE7_M_headERS3_@plt>
    62d0:	e1a03000 	mov	r3, r0
    62d4:	e1a00003 	mov	r0, r3
    62d8:	e24bd004 	sub	sp, fp, #4
    62dc:	e8bd8800 	pop	{fp, pc}

000062e0 <_ZSt3getILj0EIPKc15jstring_deleterEENSt9__add_refINSt13tuple_elementIXT_ESt5tupleIIDpT0_EEE4typeEE4typeERS8_>:
    62e0:	e92d4800 	push	{fp, lr}
    62e4:	e28db004 	add	fp, sp, #4
    62e8:	e24dd008 	sub	sp, sp, #8
    62ec:	e50b0008 	str	r0, [fp, #-8]
    62f0:	e51b3008 	ldr	r3, [fp, #-8]
    62f4:	e1a00003 	mov	r0, r3
    62f8:	ebfffb4a 	bl	5028 <_ZSt12__get_helperILj0EPKcI15jstring_deleterEENSt9__add_refIT0_E4typeERSt11_Tuple_implIXT_EIS4_DpT1_EE@plt>
    62fc:	e1a03000 	mov	r3, r0
    6300:	e1a00003 	mov	r0, r3
    6304:	e24bd004 	sub	sp, fp, #4
    6308:	e8bd8800 	pop	{fp, pc}

0000630c <_ZNSt10unique_ptrIKc15jstring_deleterED1Ev>:
    630c:	e92d4800 	push	{fp, lr}
    6310:	e28db004 	add	fp, sp, #4
    6314:	e24dd010 	sub	sp, sp, #16
    6318:	e50b0010 	str	r0, [fp, #-16]
    631c:	e51b3010 	ldr	r3, [fp, #-16]
    6320:	e1a00003 	mov	r0, r3
    6324:	ebfffb96 	bl	5184 <_ZSt3getILj0EIPKc15jstring_deleterEENSt9__add_refINSt13tuple_elementIXT_ESt5tupleIIDpT0_EEE4typeEE4typeERS8_@plt>
    6328:	e50b0008 	str	r0, [fp, #-8]
    632c:	e51b3008 	ldr	r3, [fp, #-8]
    6330:	e5933000 	ldr	r3, [r3]
    6334:	e3530000 	cmp	r3, #0
    6338:	0a000007 	beq	635c <_ZNSt10unique_ptrIKc15jstring_deleterED1Ev+0x50>
    633c:	e51b0010 	ldr	r0, [fp, #-16]
    6340:	ebfffbaa 	bl	51f0 <_ZNSt10unique_ptrIKc15jstring_deleterE11get_deleterEv@plt>
    6344:	e1a02000 	mov	r2, r0
    6348:	e51b3008 	ldr	r3, [fp, #-8]
    634c:	e5933000 	ldr	r3, [r3]
    6350:	e1a00002 	mov	r0, r2
    6354:	e1a01003 	mov	r1, r3
    6358:	ebfffb4a 	bl	5088 <_ZN15jstring_deleterclEPKc@plt>
    635c:	e51b3008 	ldr	r3, [fp, #-8]
    6360:	e3a02000 	mov	r2, #0
    6364:	e5832000 	str	r2, [r3]
    6368:	e51b3010 	ldr	r3, [fp, #-16]
    636c:	e1a00003 	mov	r0, r3
    6370:	e24bd004 	sub	sp, fp, #4
    6374:	e8bd8800 	pop	{fp, pc}

00006378 <_ZNSt10_Head_baseILj0EPKcLb0EE7_M_headERKS2_>:
    6378:	e52db004 	push	{fp}		; (str fp, [sp, #-4]!)
    637c:	e28db000 	add	fp, sp, #0
    6380:	e24dd00c 	sub	sp, sp, #12
    6384:	e50b0008 	str	r0, [fp, #-8]
    6388:	e51b3008 	ldr	r3, [fp, #-8]
    638c:	e1a00003 	mov	r0, r3
    6390:	e24bd000 	sub	sp, fp, #0
    6394:	e49db004 	pop	{fp}		; (ldr fp, [sp], #4)
    6398:	e12fff1e 	bx	lr

0000639c <_ZNSt11_Tuple_implILj0EIPKc15jstring_deleterEE7_M_headERKS3_>:
    639c:	e92d4800 	push	{fp, lr}
    63a0:	e28db004 	add	fp, sp, #4
    63a4:	e24dd008 	sub	sp, sp, #8
    63a8:	e50b0008 	str	r0, [fp, #-8]
    63ac:	e51b3008 	ldr	r3, [fp, #-8]
    63b0:	e2833008 	add	r3, r3, #8
    63b4:	e1a00003 	mov	r0, r3
    63b8:	ebfffb1d 	bl	5034 <_ZNSt10_Head_baseILj0EPKcLb0EE7_M_headERKS2_@plt>
    63bc:	e1a03000 	mov	r3, r0
    63c0:	e1a00003 	mov	r0, r3
    63c4:	e24bd004 	sub	sp, fp, #4
    63c8:	e8bd8800 	pop	{fp, pc}

000063cc <_ZSt12__get_helperILj0EPKcI15jstring_deleterEENSt11__add_c_refIT0_E4typeERKSt11_Tuple_implIXT_EIS4_DpT1_EE>:
    63cc:	e92d4800 	push	{fp, lr}
    63d0:	e28db004 	add	fp, sp, #4
    63d4:	e24dd008 	sub	sp, sp, #8
    63d8:	e50b0008 	str	r0, [fp, #-8]
    63dc:	e51b0008 	ldr	r0, [fp, #-8]
    63e0:	ebfffb07 	bl	5004 <_ZNSt11_Tuple_implILj0EIPKc15jstring_deleterEE7_M_headERKS3_@plt>
    63e4:	e1a03000 	mov	r3, r0
    63e8:	e1a00003 	mov	r0, r3
    63ec:	e24bd004 	sub	sp, fp, #4
    63f0:	e8bd8800 	pop	{fp, pc}

000063f4 <_ZSt3getILj0EIPKc15jstring_deleterEENSt11__add_c_refINSt13tuple_elementIXT_ESt5tupleIIDpT0_EEE4typeEE4typeERKS8_>:
    63f4:	e92d4800 	push	{fp, lr}
    63f8:	e28db004 	add	fp, sp, #4
    63fc:	e24dd008 	sub	sp, sp, #8
    6400:	e50b0008 	str	r0, [fp, #-8]
    6404:	e51b3008 	ldr	r3, [fp, #-8]
    6408:	e1a00003 	mov	r0, r3
    640c:	ebfffbb3 	bl	52e0 <_ZSt12__get_helperILj0EPKcI15jstring_deleterEENSt11__add_c_refIT0_E4typeERKSt11_Tuple_implIXT_EIS4_DpT1_EE@plt>
    6410:	e1a03000 	mov	r3, r0
    6414:	e1a00003 	mov	r0, r3
    6418:	e24bd004 	sub	sp, fp, #4
    641c:	e8bd8800 	pop	{fp, pc}

00006420 <_ZNKSt10unique_ptrIKc15jstring_deleterE3getEv>:
    6420:	e92d4800 	push	{fp, lr}
    6424:	e28db004 	add	fp, sp, #4
    6428:	e24dd008 	sub	sp, sp, #8
    642c:	e50b0008 	str	r0, [fp, #-8]
    6430:	e51b3008 	ldr	r3, [fp, #-8]
    6434:	e1a00003 	mov	r0, r3
    6438:	ebfffbb1 	bl	5304 <_ZSt3getILj0EIPKc15jstring_deleterEENSt11__add_c_refINSt13tuple_elementIXT_ESt5tupleIIDpT0_EEE4typeEE4typeERKS8_@plt>
    643c:	e1a03000 	mov	r3, r0
    6440:	e5933000 	ldr	r3, [r3]
    6444:	e1a00003 	mov	r0, r3
    6448:	e24bd004 	sub	sp, fp, #4
    644c:	e8bd8800 	pop	{fp, pc}

00006450 <_ZNSt14unary_functionIPKcvEC1Ev>:
    6450:	e52db004 	push	{fp}		; (str fp, [sp, #-4]!)
    6454:	e28db000 	add	fp, sp, #0
    6458:	e24dd00c 	sub	sp, sp, #12
    645c:	e50b0008 	str	r0, [fp, #-8]
    6460:	e51b3008 	ldr	r3, [fp, #-8]
    6464:	e1a00003 	mov	r0, r3
    6468:	e24bd000 	sub	sp, fp, #0
    646c:	e49db004 	pop	{fp}		; (ldr fp, [sp], #4)
    6470:	e12fff1e 	bx	lr

00006474 <_ZNSt31_Maybe_unary_or_binary_functionIvIPKcEEC1Ev>:
    6474:	e92d4800 	push	{fp, lr}
    6478:	e28db004 	add	fp, sp, #4
    647c:	e24dd008 	sub	sp, sp, #8
    6480:	e50b0008 	str	r0, [fp, #-8]
    6484:	e51b0008 	ldr	r0, [fp, #-8]
    6488:	ebfffb52 	bl	51d8 <_ZNSt14unary_functionIPKcvEC2Ev@plt>
    648c:	e51b3008 	ldr	r3, [fp, #-8]
    6490:	e1a00003 	mov	r0, r3
    6494:	e24bd004 	sub	sp, fp, #4
    6498:	e8bd8800 	pop	{fp, pc}

0000649c <_ZNSt8functionIFvPKcEEC1EOS3_>:
    649c:	e92d4800 	push	{fp, lr}
    64a0:	e28db004 	add	fp, sp, #4
    64a4:	e24dd008 	sub	sp, sp, #8
    64a8:	e50b0008 	str	r0, [fp, #-8]
    64ac:	e50b100c 	str	r1, [fp, #-12]
    64b0:	e51b0008 	ldr	r0, [fp, #-8]
    64b4:	ebfffaab 	bl	4f68 <_ZNSt31_Maybe_unary_or_binary_functionIvIPKcEEC2Ev@plt>
    64b8:	e51b3008 	ldr	r3, [fp, #-8]
    64bc:	e1a00003 	mov	r0, r3
    64c0:	ebfffbd7 	bl	5424 <_ZNSt14_Function_baseC2Ev@plt>
    64c4:	e51b000c 	ldr	r0, [fp, #-12]
    64c8:	e51b1008 	ldr	r1, [fp, #-8]
    64cc:	ebfffa90 	bl	4f14 <_ZNSt8functionIFvPKcEE4swapERS3_@plt>
    64d0:	e51b3008 	ldr	r3, [fp, #-8]
    64d4:	ea000003 	b	64e8 <_ZNSt8functionIFvPKcEEC1EOS3_+0x4c>
    64d8:	e51b3008 	ldr	r3, [fp, #-8]
    64dc:	e1a00003 	mov	r0, r3
    64e0:	ebfffb57 	bl	5244 <_ZNSt14_Function_baseD2Ev@plt>
    64e4:	ebfffafc 	bl	50dc <__cxa_end_cleanup@plt>
    64e8:	e1a00003 	mov	r0, r3
    64ec:	e24bd004 	sub	sp, fp, #4
    64f0:	e8bd8800 	pop	{fp, pc}

000064f4 <_ZNSt8functionIFvPKcEEC1ERKS3_>:
    64f4:	e92d4800 	push	{fp, lr}
    64f8:	e28db004 	add	fp, sp, #4
    64fc:	e24dd008 	sub	sp, sp, #8
    6500:	e50b0008 	str	r0, [fp, #-8]
    6504:	e50b100c 	str	r1, [fp, #-12]
    6508:	e51b0008 	ldr	r0, [fp, #-8]
    650c:	ebfffa95 	bl	4f68 <_ZNSt31_Maybe_unary_or_binary_functionIvIPKcEEC2Ev@plt>
    6510:	e51b3008 	ldr	r3, [fp, #-8]
    6514:	e1a00003 	mov	r0, r3
    6518:	ebfffbc1 	bl	5424 <_ZNSt14_Function_baseC2Ev@plt>
    651c:	e51b000c 	ldr	r0, [fp, #-12]
    6520:	ebfffbc5 	bl	543c <_ZNKSt8functionIFvPKcEEcvbEv@plt>
    6524:	e1a03000 	mov	r3, r0
    6528:	e3530000 	cmp	r3, #0
    652c:	0a00000f 	beq	6570 <_ZNSt8functionIFvPKcEEC1ERKS3_+0x7c>
    6530:	e51b300c 	ldr	r3, [fp, #-12]
    6534:	e5933008 	ldr	r3, [r3, #8]
    6538:	e51b1008 	ldr	r1, [fp, #-8]
    653c:	e51b200c 	ldr	r2, [fp, #-12]
    6540:	e1a00001 	mov	r0, r1
    6544:	e1a01002 	mov	r1, r2
    6548:	e3a02002 	mov	r2, #2
    654c:	e12fff33 	blx	r3
    6550:	e51b300c 	ldr	r3, [fp, #-12]
    6554:	e593200c 	ldr	r2, [r3, #12]
    6558:	e51b3008 	ldr	r3, [fp, #-8]
    655c:	e583200c 	str	r2, [r3, #12]
    6560:	e51b300c 	ldr	r3, [fp, #-12]
    6564:	e5932008 	ldr	r2, [r3, #8]
    6568:	e51b3008 	ldr	r3, [fp, #-8]
    656c:	e5832008 	str	r2, [r3, #8]
    6570:	e51b3008 	ldr	r3, [fp, #-8]
    6574:	ea000003 	b	6588 <_ZNSt8functionIFvPKcEEC1ERKS3_+0x94>
    6578:	e51b3008 	ldr	r3, [fp, #-8]
    657c:	e1a00003 	mov	r0, r3
    6580:	ebfffb2f 	bl	5244 <_ZNSt14_Function_baseD2Ev@plt>
    6584:	ebfffad4 	bl	50dc <__cxa_end_cleanup@plt>
    6588:	e1a00003 	mov	r0, r3
    658c:	e24bd004 	sub	sp, fp, #4
    6590:	e8bd8800 	pop	{fp, pc}

00006594 <_ZNSt10shared_ptrIKcEC1IS0_St8functionIFvPS0_EEEEPT_T0_>:
    6594:	e92d4810 	push	{r4, fp, lr}
    6598:	e28db008 	add	fp, sp, #8
    659c:	e24dd024 	sub	sp, sp, #36	; 0x24
    65a0:	e50b0020 	str	r0, [fp, #-32]	; 0xffffffe0
    65a4:	e50b1024 	str	r1, [fp, #-36]	; 0xffffffdc
    65a8:	e50b2028 	str	r2, [fp, #-40]	; 0xffffffd8
    65ac:	e51b4020 	ldr	r4, [fp, #-32]	; 0xffffffe0
    65b0:	e24b301c 	sub	r3, fp, #28
    65b4:	e1a00003 	mov	r0, r3
    65b8:	e51b1028 	ldr	r1, [fp, #-40]	; 0xffffffd8
    65bc:	ebfffb38 	bl	52a4 <_ZNSt8functionIFvPKcEEC1ERKS3_@plt>
    65c0:	e24b301c 	sub	r3, fp, #28
    65c4:	e1a00004 	mov	r0, r4
    65c8:	e51b1024 	ldr	r1, [fp, #-36]	; 0xffffffdc
    65cc:	e1a02003 	mov	r2, r3
    65d0:	ebfffae5 	bl	516c <_ZNSt12__shared_ptrIKcLN9__gnu_cxx12_Lock_policyE2EEC2IS0_St8functionIFvPS0_EEEEPT_T0_@plt>
    65d4:	e24b301c 	sub	r3, fp, #28
    65d8:	e1a00003 	mov	r0, r3
    65dc:	ebfffafa 	bl	51cc <_ZNSt8functionIFvPKcEED1Ev@plt>
    65e0:	e51b3020 	ldr	r3, [fp, #-32]	; 0xffffffe0
    65e4:	ea000003 	b	65f8 <_ZNSt10shared_ptrIKcEC1IS0_St8functionIFvPS0_EEEEPT_T0_+0x64>
    65e8:	e24b301c 	sub	r3, fp, #28
    65ec:	e1a00003 	mov	r0, r3
    65f0:	ebfffaf5 	bl	51cc <_ZNSt8functionIFvPKcEED1Ev@plt>
    65f4:	ebfffab8 	bl	50dc <__cxa_end_cleanup@plt>
    65f8:	e1a00003 	mov	r0, r3
    65fc:	e24bd008 	sub	sp, fp, #8
    6600:	e8bd8810 	pop	{r4, fp, pc}

00006604 <_ZNSt10_Head_baseILj1E15jstring_deleterLb0EE7_M_headERS1_>:
    6604:	e52db004 	push	{fp}		; (str fp, [sp, #-4]!)
    6608:	e28db000 	add	fp, sp, #0
    660c:	e24dd00c 	sub	sp, sp, #12
    6610:	e50b0008 	str	r0, [fp, #-8]
    6614:	e51b3008 	ldr	r3, [fp, #-8]
    6618:	e1a00003 	mov	r0, r3
    661c:	e24bd000 	sub	sp, fp, #0
    6620:	e49db004 	pop	{fp}		; (ldr fp, [sp], #4)
    6624:	e12fff1e 	bx	lr

00006628 <_ZNSt11_Tuple_implILj1EI15jstring_deleterEE7_M_headERS1_>:
    6628:	e92d4800 	push	{fp, lr}
    662c:	e28db004 	add	fp, sp, #4
    6630:	e24dd008 	sub	sp, sp, #8
    6634:	e50b0008 	str	r0, [fp, #-8]
    6638:	e51b3008 	ldr	r3, [fp, #-8]
    663c:	e1a00003 	mov	r0, r3
    6640:	ebfffb35 	bl	531c <_ZNSt10_Head_baseILj1E15jstring_deleterLb0EE7_M_headERS1_@plt>
    6644:	e1a03000 	mov	r3, r0
    6648:	e1a00003 	mov	r0, r3
    664c:	e24bd004 	sub	sp, fp, #4
    6650:	e8bd8800 	pop	{fp, pc}

00006654 <_ZSt12__get_helperILj1E15jstring_deleterIEENSt9__add_refIT0_E4typeERSt11_Tuple_implIXT_EIS2_DpT1_EE>:
    6654:	e92d4800 	push	{fp, lr}
    6658:	e28db004 	add	fp, sp, #4
    665c:	e24dd008 	sub	sp, sp, #8
    6660:	e50b0008 	str	r0, [fp, #-8]
    6664:	e51b0008 	ldr	r0, [fp, #-8]
    6668:	ebfffb3d 	bl	5364 <_ZNSt11_Tuple_implILj1EI15jstring_deleterEE7_M_headERS1_@plt>
    666c:	e1a03000 	mov	r3, r0
    6670:	e1a00003 	mov	r0, r3
    6674:	e24bd004 	sub	sp, fp, #4
    6678:	e8bd8800 	pop	{fp, pc}

0000667c <_ZSt3getILj1EIPKc15jstring_deleterEENSt9__add_refINSt13tuple_elementIXT_ESt5tupleIIDpT0_EEE4typeEE4typeERS8_>:
    667c:	e92d4800 	push	{fp, lr}
    6680:	e28db004 	add	fp, sp, #4
    6684:	e24dd008 	sub	sp, sp, #8
    6688:	e50b0008 	str	r0, [fp, #-8]
    668c:	e51b3008 	ldr	r3, [fp, #-8]
    6690:	e1a00003 	mov	r0, r3
    6694:	ebfffaae 	bl	5154 <_ZSt12__get_helperILj1E15jstring_deleterIEENSt9__add_refIT0_E4typeERSt11_Tuple_implIXT_EIS2_DpT1_EE@plt>
    6698:	e1a03000 	mov	r3, r0
    669c:	e1a00003 	mov	r0, r3
    66a0:	e24bd004 	sub	sp, fp, #4
    66a4:	e8bd8800 	pop	{fp, pc}

000066a8 <_ZNSt10unique_ptrIKc15jstring_deleterE11get_deleterEv>:
    66a8:	e92d4800 	push	{fp, lr}
    66ac:	e28db004 	add	fp, sp, #4
    66b0:	e24dd008 	sub	sp, sp, #8
    66b4:	e50b0008 	str	r0, [fp, #-8]
    66b8:	e51b3008 	ldr	r3, [fp, #-8]
    66bc:	e1a00003 	mov	r0, r3
    66c0:	ebfffb21 	bl	534c <_ZSt3getILj1EIPKc15jstring_deleterEENSt9__add_refINSt13tuple_elementIXT_ESt5tupleIIDpT0_EEE4typeEE4typeERS8_@plt>
    66c4:	e1a03000 	mov	r3, r0
    66c8:	e1a00003 	mov	r0, r3
    66cc:	e24bd004 	sub	sp, fp, #4
    66d0:	e8bd8800 	pop	{fp, pc}

000066d4 <_ZSt7forwardIPKcEOT_RNSt16remove_referenceIS2_E4typeE>:
    66d4:	e52db004 	push	{fp}		; (str fp, [sp, #-4]!)
    66d8:	e28db000 	add	fp, sp, #0
    66dc:	e24dd00c 	sub	sp, sp, #12
    66e0:	e50b0008 	str	r0, [fp, #-8]
    66e4:	e51b3008 	ldr	r3, [fp, #-8]
    66e8:	e1a00003 	mov	r0, r3
    66ec:	e24bd000 	sub	sp, fp, #0
    66f0:	e49db004 	pop	{fp}		; (ldr fp, [sp], #4)
    66f4:	e12fff1e 	bx	lr

000066f8 <_ZNSt8functionIFvPKcEE4swapERS3_>:
    66f8:	e92d4800 	push	{fp, lr}
    66fc:	e28db004 	add	fp, sp, #4
    6700:	e24dd008 	sub	sp, sp, #8
    6704:	e50b0008 	str	r0, [fp, #-8]
    6708:	e50b100c 	str	r1, [fp, #-12]
    670c:	e51b2008 	ldr	r2, [fp, #-8]
    6710:	e51b300c 	ldr	r3, [fp, #-12]
    6714:	e1a00002 	mov	r0, r2
    6718:	e1a01003 	mov	r1, r3
    671c:	ebfffa4d 	bl	5058 <_ZSt4swapISt9_Any_dataEvRT_S2_@plt>
    6720:	e51b3008 	ldr	r3, [fp, #-8]
    6724:	e2832008 	add	r2, r3, #8
    6728:	e51b300c 	ldr	r3, [fp, #-12]
    672c:	e2833008 	add	r3, r3, #8
    6730:	e1a00002 	mov	r0, r2
    6734:	e1a01003 	mov	r1, r3
    6738:	ebfffb0f 	bl	537c <_ZSt4swapIPFbRSt9_Any_dataRKS0_St18_Manager_operationEEvRT_S8_@plt>
    673c:	e51b3008 	ldr	r3, [fp, #-8]
    6740:	e283200c 	add	r2, r3, #12
    6744:	e51b300c 	ldr	r3, [fp, #-12]
    6748:	e283300c 	add	r3, r3, #12
    674c:	e1a00002 	mov	r0, r2
    6750:	e1a01003 	mov	r1, r3
    6754:	ebfffa63 	bl	50e8 <_ZSt4swapIPFvRKSt9_Any_dataPKcEEvRT_S8_@plt>
    6758:	e24bd004 	sub	sp, fp, #4
    675c:	e8bd8800 	pop	{fp, pc}

00006760 <_ZNKSt8functionIFvPKcEEcvbEv>:
    6760:	e92d4800 	push	{fp, lr}
    6764:	e28db004 	add	fp, sp, #4
    6768:	e24dd008 	sub	sp, sp, #8
    676c:	e50b0008 	str	r0, [fp, #-8]
    6770:	e51b3008 	ldr	r3, [fp, #-8]
    6774:	e1a00003 	mov	r0, r3
    6778:	ebfffa6f 	bl	513c <_ZNKSt14_Function_base8_M_emptyEv@plt>
    677c:	e1a03000 	mov	r3, r0
    6780:	e2233001 	eor	r3, r3, #1
    6784:	e6ef3073 	uxtb	r3, r3
    6788:	e1a00003 	mov	r0, r3
    678c:	e24bd004 	sub	sp, fp, #4
    6790:	e8bd8800 	pop	{fp, pc}

00006794 <_ZNSt12__shared_ptrIKcLN9__gnu_cxx12_Lock_policyE2EEC1IS0_St8functionIFvPS0_EEEEPT_T0_>:
    6794:	e92d4810 	push	{r4, fp, lr}
    6798:	e28db008 	add	fp, sp, #8
    679c:	e24dd024 	sub	sp, sp, #36	; 0x24
    67a0:	e50b0020 	str	r0, [fp, #-32]	; 0xffffffe0
    67a4:	e50b1024 	str	r1, [fp, #-36]	; 0xffffffdc
    67a8:	e50b2028 	str	r2, [fp, #-40]	; 0xffffffd8
    67ac:	e51b3020 	ldr	r3, [fp, #-32]	; 0xffffffe0
    67b0:	e51b2024 	ldr	r2, [fp, #-36]	; 0xffffffdc
    67b4:	e5832000 	str	r2, [r3]
    67b8:	e51b3020 	ldr	r3, [fp, #-32]	; 0xffffffe0
    67bc:	e2834004 	add	r4, r3, #4
    67c0:	e24b301c 	sub	r3, fp, #28
    67c4:	e1a00003 	mov	r0, r3
    67c8:	e51b1028 	ldr	r1, [fp, #-40]	; 0xffffffd8
    67cc:	ebfffab4 	bl	52a4 <_ZNSt8functionIFvPKcEEC1ERKS3_@plt>
    67d0:	e24b301c 	sub	r3, fp, #28
    67d4:	e1a00004 	mov	r0, r4
    67d8:	e51b1024 	ldr	r1, [fp, #-36]	; 0xffffffdc
    67dc:	e1a02003 	mov	r2, r3
    67e0:	ebfff9ce 	bl	4f20 <_ZNSt14__shared_countILN9__gnu_cxx12_Lock_policyE2EEC1IPKcSt8functionIFvS5_EEEET_T0_@plt>
    67e4:	e24b301c 	sub	r3, fp, #28
    67e8:	e1a00003 	mov	r0, r3
    67ec:	ebfffa76 	bl	51cc <_ZNSt8functionIFvPKcEED1Ev@plt>
    67f0:	e51b3020 	ldr	r3, [fp, #-32]	; 0xffffffe0
    67f4:	e2833004 	add	r3, r3, #4
    67f8:	e1a00003 	mov	r0, r3
    67fc:	e51b1024 	ldr	r1, [fp, #-36]	; 0xffffffdc
    6800:	e51b2024 	ldr	r2, [fp, #-36]	; 0xffffffdc
    6804:	ebfff9f8 	bl	4fec <_ZSt32__enable_shared_from_this_helperILN9__gnu_cxx12_Lock_policyE2EEvRKSt14__shared_countIXT_EEz@plt>
    6808:	e51b3020 	ldr	r3, [fp, #-32]	; 0xffffffe0
    680c:	ea000003 	b	6820 <_ZNSt12__shared_ptrIKcLN9__gnu_cxx12_Lock_policyE2EEC1IS0_St8functionIFvPS0_EEEEPT_T0_+0x8c>
    6810:	e24b301c 	sub	r3, fp, #28
    6814:	e1a00003 	mov	r0, r3
    6818:	ebfffa6b 	bl	51cc <_ZNSt8functionIFvPKcEED1Ev@plt>
    681c:	ebfffa2e 	bl	50dc <__cxa_end_cleanup@plt>
    6820:	e1a00003 	mov	r0, r3
    6824:	e24bd008 	sub	sp, fp, #8
    6828:	e8bd8810 	pop	{r4, fp, pc}

0000682c <_ZNSt9_Any_data9_M_accessIPKSt9type_infoEERT_v>:
    682c:	e92d4800 	push	{fp, lr}
    6830:	e28db004 	add	fp, sp, #4
    6834:	e24dd008 	sub	sp, sp, #8
    6838:	e50b0008 	str	r0, [fp, #-8]
    683c:	e51b0008 	ldr	r0, [fp, #-8]
    6840:	ebfff9bc 	bl	4f38 <_ZNSt9_Any_data9_M_accessEv@plt>
    6844:	e1a03000 	mov	r3, r0
    6848:	e1a00003 	mov	r0, r3
    684c:	e24bd004 	sub	sp, fp, #4
    6850:	e8bd8800 	pop	{fp, pc}

00006854 <_ZSt4moveIRSt9_Any_dataEONSt16remove_referenceIT_E4typeEOS3_>:
    6854:	e52db004 	push	{fp}		; (str fp, [sp, #-4]!)
    6858:	e28db000 	add	fp, sp, #0
    685c:	e24dd00c 	sub	sp, sp, #12
    6860:	e50b0008 	str	r0, [fp, #-8]
    6864:	e51b3008 	ldr	r3, [fp, #-8]
    6868:	e1a00003 	mov	r0, r3
    686c:	e24bd000 	sub	sp, fp, #0
    6870:	e49db004 	pop	{fp}		; (ldr fp, [sp], #4)
    6874:	e12fff1e 	bx	lr

00006878 <_ZSt4swapISt9_Any_dataEvRT_S2_>:
    6878:	e92d4800 	push	{fp, lr}
    687c:	e28db004 	add	fp, sp, #4
    6880:	e24dd010 	sub	sp, sp, #16
    6884:	e50b0010 	str	r0, [fp, #-16]
    6888:	e50b1014 	str	r1, [fp, #-20]	; 0xffffffec
    688c:	e51b0010 	ldr	r0, [fp, #-16]
    6890:	ebfffa4a 	bl	51c0 <_ZSt4moveIRSt9_Any_dataEONSt16remove_referenceIT_E4typeEOS3_@plt>
    6894:	e1a02000 	mov	r2, r0
    6898:	e24b300c 	sub	r3, fp, #12
    689c:	e8920003 	ldm	r2, {r0, r1}
    68a0:	e8830003 	stm	r3, {r0, r1}
    68a4:	e51b0014 	ldr	r0, [fp, #-20]	; 0xffffffec
    68a8:	ebfffa44 	bl	51c0 <_ZSt4moveIRSt9_Any_dataEONSt16remove_referenceIT_E4typeEOS3_@plt>
    68ac:	e1a02000 	mov	r2, r0
    68b0:	e51b3010 	ldr	r3, [fp, #-16]
    68b4:	e8920003 	ldm	r2, {r0, r1}
    68b8:	e8830003 	stm	r3, {r0, r1}
    68bc:	e24b300c 	sub	r3, fp, #12
    68c0:	e1a00003 	mov	r0, r3
    68c4:	ebfffa3d 	bl	51c0 <_ZSt4moveIRSt9_Any_dataEONSt16remove_referenceIT_E4typeEOS3_@plt>
    68c8:	e1a02000 	mov	r2, r0
    68cc:	e51b3014 	ldr	r3, [fp, #-20]	; 0xffffffec
    68d0:	e8920003 	ldm	r2, {r0, r1}
    68d4:	e8830003 	stm	r3, {r0, r1}
    68d8:	e24bd004 	sub	sp, fp, #4
    68dc:	e8bd8800 	pop	{fp, pc}

000068e0 <_ZSt4moveIRPFbRSt9_Any_dataRKS0_St18_Manager_operationEEONSt16remove_referenceIT_E4typeEOS9_>:
    68e0:	e52db004 	push	{fp}		; (str fp, [sp, #-4]!)
    68e4:	e28db000 	add	fp, sp, #0
    68e8:	e24dd00c 	sub	sp, sp, #12
    68ec:	e50b0008 	str	r0, [fp, #-8]
    68f0:	e51b3008 	ldr	r3, [fp, #-8]
    68f4:	e1a00003 	mov	r0, r3
    68f8:	e24bd000 	sub	sp, fp, #0
    68fc:	e49db004 	pop	{fp}		; (ldr fp, [sp], #4)
    6900:	e12fff1e 	bx	lr

00006904 <_ZSt4swapIPFbRSt9_Any_dataRKS0_St18_Manager_operationEEvRT_S8_>:
    6904:	e92d4800 	push	{fp, lr}
    6908:	e28db004 	add	fp, sp, #4
    690c:	e24dd010 	sub	sp, sp, #16
    6910:	e50b0010 	str	r0, [fp, #-16]
    6914:	e50b1014 	str	r1, [fp, #-20]	; 0xffffffec
    6918:	e51b0010 	ldr	r0, [fp, #-16]
    691c:	ebfffa1e 	bl	519c <_ZSt4moveIRPFbRSt9_Any_dataRKS0_St18_Manager_operationEEONSt16remove_referenceIT_E4typeEOS9_@plt>
    6920:	e1a03000 	mov	r3, r0
    6924:	e5933000 	ldr	r3, [r3]
    6928:	e50b3008 	str	r3, [fp, #-8]
    692c:	e51b0014 	ldr	r0, [fp, #-20]	; 0xffffffec
    6930:	ebfffa19 	bl	519c <_ZSt4moveIRPFbRSt9_Any_dataRKS0_St18_Manager_operationEEONSt16remove_referenceIT_E4typeEOS9_@plt>
    6934:	e1a03000 	mov	r3, r0
    6938:	e5932000 	ldr	r2, [r3]
    693c:	e51b3010 	ldr	r3, [fp, #-16]
    6940:	e5832000 	str	r2, [r3]
    6944:	e24b3008 	sub	r3, fp, #8
    6948:	e1a00003 	mov	r0, r3
    694c:	ebfffa12 	bl	519c <_ZSt4moveIRPFbRSt9_Any_dataRKS0_St18_Manager_operationEEONSt16remove_referenceIT_E4typeEOS9_@plt>
    6950:	e1a03000 	mov	r3, r0
    6954:	e5932000 	ldr	r2, [r3]
    6958:	e51b3014 	ldr	r3, [fp, #-20]	; 0xffffffec
    695c:	e5832000 	str	r2, [r3]
    6960:	e24bd004 	sub	sp, fp, #4
    6964:	e8bd8800 	pop	{fp, pc}

00006968 <_ZSt4moveIRPFvRKSt9_Any_dataPKcEEONSt16remove_referenceIT_E4typeEOS9_>:
    6968:	e52db004 	push	{fp}		; (str fp, [sp, #-4]!)
    696c:	e28db000 	add	fp, sp, #0
    6970:	e24dd00c 	sub	sp, sp, #12
    6974:	e50b0008 	str	r0, [fp, #-8]
    6978:	e51b3008 	ldr	r3, [fp, #-8]
    697c:	e1a00003 	mov	r0, r3
    6980:	e24bd000 	sub	sp, fp, #0
    6984:	e49db004 	pop	{fp}		; (ldr fp, [sp], #4)
    6988:	e12fff1e 	bx	lr

0000698c <_ZSt4swapIPFvRKSt9_Any_dataPKcEEvRT_S8_>:
    698c:	e92d4800 	push	{fp, lr}
    6990:	e28db004 	add	fp, sp, #4
    6994:	e24dd010 	sub	sp, sp, #16
    6998:	e50b0010 	str	r0, [fp, #-16]
    699c:	e50b1014 	str	r1, [fp, #-20]	; 0xffffffec
    69a0:	e51b0010 	ldr	r0, [fp, #-16]
    69a4:	ebfff9d5 	bl	5100 <_ZSt4moveIRPFvRKSt9_Any_dataPKcEEONSt16remove_referenceIT_E4typeEOS9_@plt>
    69a8:	e1a03000 	mov	r3, r0
    69ac:	e5933000 	ldr	r3, [r3]
    69b0:	e50b3008 	str	r3, [fp, #-8]
    69b4:	e51b0014 	ldr	r0, [fp, #-20]	; 0xffffffec
    69b8:	ebfff9d0 	bl	5100 <_ZSt4moveIRPFvRKSt9_Any_dataPKcEEONSt16remove_referenceIT_E4typeEOS9_@plt>
    69bc:	e1a03000 	mov	r3, r0
    69c0:	e5932000 	ldr	r2, [r3]
    69c4:	e51b3010 	ldr	r3, [fp, #-16]
    69c8:	e5832000 	str	r2, [r3]
    69cc:	e24b3008 	sub	r3, fp, #8
    69d0:	e1a00003 	mov	r0, r3
    69d4:	ebfff9c9 	bl	5100 <_ZSt4moveIRPFvRKSt9_Any_dataPKcEEONSt16remove_referenceIT_E4typeEOS9_@plt>
    69d8:	e1a03000 	mov	r3, r0
    69dc:	e5932000 	ldr	r2, [r3]
    69e0:	e51b3014 	ldr	r3, [fp, #-20]	; 0xffffffec
    69e4:	e5832000 	str	r2, [r3]
    69e8:	e24bd004 	sub	sp, fp, #4
    69ec:	e8bd8800 	pop	{fp, pc}

000069f0 <_ZSt4moveIRSt8functionIFvPKcEEEONSt16remove_referenceIT_E4typeEOS7_>:
    69f0:	e52db004 	push	{fp}		; (str fp, [sp, #-4]!)
    69f4:	e28db000 	add	fp, sp, #0
    69f8:	e24dd00c 	sub	sp, sp, #12
    69fc:	e50b0008 	str	r0, [fp, #-8]
    6a00:	e51b3008 	ldr	r3, [fp, #-8]
    6a04:	e1a00003 	mov	r0, r3
    6a08:	e24bd000 	sub	sp, fp, #0
    6a0c:	e49db004 	pop	{fp}		; (ldr fp, [sp], #4)
    6a10:	e12fff1e 	bx	lr

00006a14 <_ZNSt14__shared_countILN9__gnu_cxx12_Lock_policyE2EEC1IPKcSt8functionIFvS5_EEEET_T0_>:
    6a14:	e92d4810 	push	{r4, fp, lr}
    6a18:	e28db008 	add	fp, sp, #8
    6a1c:	e24dd02c 	sub	sp, sp, #44	; 0x2c
    6a20:	e50b0028 	str	r0, [fp, #-40]	; 0xffffffd8
    6a24:	e50b102c 	str	r1, [fp, #-44]	; 0xffffffd4
    6a28:	e50b2030 	str	r2, [fp, #-48]	; 0xffffffd0
    6a2c:	e51b0030 	ldr	r0, [fp, #-48]	; 0xffffffd0
    6a30:	ebfffa60 	bl	53b8 <_ZSt4moveIRSt8functionIFvPKcEEEONSt16remove_referenceIT_E4typeEOS7_@plt>
    6a34:	e1a02000 	mov	r2, r0
    6a38:	e24b3020 	sub	r3, fp, #32
    6a3c:	e1a00003 	mov	r0, r3
    6a40:	e1a01002 	mov	r1, r2
    6a44:	ebfffa64 	bl	53dc <_ZNSt8functionIFvPKcEEC1EOS3_@plt>
    6a48:	e24b3020 	sub	r3, fp, #32
    6a4c:	e51b0028 	ldr	r0, [fp, #-40]	; 0xffffffd8
    6a50:	e51b102c 	ldr	r1, [fp, #-44]	; 0xffffffd4
    6a54:	e1a02003 	mov	r2, r3
    6a58:	e1a03004 	mov	r3, r4
    6a5c:	ebfffa7f 	bl	5460 <_ZNSt14__shared_countILN9__gnu_cxx12_Lock_policyE2EEC1IPKcSt8functionIFvS5_EESaIvEEET_T0_T1_@plt>
    6a60:	e24b3020 	sub	r3, fp, #32
    6a64:	e1a00003 	mov	r0, r3
    6a68:	ebfff9d7 	bl	51cc <_ZNSt8functionIFvPKcEED1Ev@plt>
    6a6c:	e51b3028 	ldr	r3, [fp, #-40]	; 0xffffffd8
    6a70:	ea000003 	b	6a84 <_ZNSt14__shared_countILN9__gnu_cxx12_Lock_policyE2EEC1IPKcSt8functionIFvS5_EEEET_T0_+0x70>
    6a74:	e24b3020 	sub	r3, fp, #32
    6a78:	e1a00003 	mov	r0, r3
    6a7c:	ebfff9d2 	bl	51cc <_ZNSt8functionIFvPKcEED1Ev@plt>
    6a80:	ebfff995 	bl	50dc <__cxa_end_cleanup@plt>
    6a84:	e1a00003 	mov	r0, r3
    6a88:	e24bd008 	sub	sp, fp, #8
    6a8c:	e8bd8810 	pop	{r4, fp, pc}

00006a90 <_ZSt32__enable_shared_from_this_helperILN9__gnu_cxx12_Lock_policyE2EEvRKSt14__shared_countIXT_EEz>:
    6a90:	e92d000f 	push	{r0, r1, r2, r3}
    6a94:	e52db004 	push	{fp}		; (str fp, [sp, #-4]!)
    6a98:	e28db000 	add	fp, sp, #0
    6a9c:	e24bd000 	sub	sp, fp, #0
    6aa0:	e49db004 	pop	{fp}		; (ldr fp, [sp], #4)
    6aa4:	e28dd010 	add	sp, sp, #16
    6aa8:	e12fff1e 	bx	lr

00006aac <_ZNSt16_Sp_counted_baseILN9__gnu_cxx12_Lock_policyE2EE10_M_destroyEv>:
    6aac:	e92d4800 	push	{fp, lr}
    6ab0:	e28db004 	add	fp, sp, #4
    6ab4:	e24dd008 	sub	sp, sp, #8
    6ab8:	e50b0008 	str	r0, [fp, #-8]
    6abc:	e51b3008 	ldr	r3, [fp, #-8]
    6ac0:	e3530000 	cmp	r3, #0
    6ac4:	0a000005 	beq	6ae0 <_ZNSt16_Sp_counted_baseILN9__gnu_cxx12_Lock_policyE2EE10_M_destroyEv+0x34>
    6ac8:	e51b3008 	ldr	r3, [fp, #-8]
    6acc:	e5933000 	ldr	r3, [r3]
    6ad0:	e2833004 	add	r3, r3, #4
    6ad4:	e5933000 	ldr	r3, [r3]
    6ad8:	e51b0008 	ldr	r0, [fp, #-8]
    6adc:	e12fff33 	blx	r3
    6ae0:	e24bd004 	sub	sp, fp, #4
    6ae4:	e8bd8800 	pop	{fp, pc}

00006ae8 <_ZSt4moveIRSaIvEEONSt16remove_referenceIT_E4typeEOS3_>:
    6ae8:	e52db004 	push	{fp}		; (str fp, [sp, #-4]!)
    6aec:	e28db000 	add	fp, sp, #0
    6af0:	e24dd00c 	sub	sp, sp, #12
    6af4:	e50b0008 	str	r0, [fp, #-8]
    6af8:	e51b3008 	ldr	r3, [fp, #-8]
    6afc:	e1a00003 	mov	r0, r3
    6b00:	e24bd000 	sub	sp, fp, #0
    6b04:	e49db004 	pop	{fp}		; (ldr fp, [sp], #4)
    6b08:	e12fff1e 	bx	lr

00006b0c <_ZSt7forwardISt8functionIFvPKcEEEOT_RNSt16remove_referenceIS5_E4typeE>:
    6b0c:	e52db004 	push	{fp}		; (str fp, [sp, #-4]!)
    6b10:	e28db000 	add	fp, sp, #0
    6b14:	e24dd00c 	sub	sp, sp, #12
    6b18:	e50b0008 	str	r0, [fp, #-8]
    6b1c:	e51b3008 	ldr	r3, [fp, #-8]
    6b20:	e1a00003 	mov	r0, r3
    6b24:	e24bd000 	sub	sp, fp, #0
    6b28:	e49db004 	pop	{fp}		; (ldr fp, [sp], #4)
    6b2c:	e12fff1e 	bx	lr

00006b30 <_ZSt7forwardISaIvEEOT_RNSt16remove_referenceIS1_E4typeE>:
    6b30:	e52db004 	push	{fp}		; (str fp, [sp, #-4]!)
    6b34:	e28db000 	add	fp, sp, #0
    6b38:	e24dd00c 	sub	sp, sp, #12
    6b3c:	e50b0008 	str	r0, [fp, #-8]
    6b40:	e51b3008 	ldr	r3, [fp, #-8]
    6b44:	e1a00003 	mov	r0, r3
    6b48:	e24bd000 	sub	sp, fp, #0
    6b4c:	e49db004 	pop	{fp}		; (ldr fp, [sp], #4)
    6b50:	e12fff1e 	bx	lr

00006b54 <_ZNSt14__shared_countILN9__gnu_cxx12_Lock_policyE2EEC1IPKcSt8functionIFvS5_EESaIvEEET_T0_T1_>:
    6b54:	e92d4810 	push	{r4, fp, lr}
    6b58:	e28db008 	add	fp, sp, #8
    6b5c:	e24dd024 	sub	sp, sp, #36	; 0x24
    6b60:	e50b0018 	str	r0, [fp, #-24]	; 0xffffffe8
    6b64:	e50b101c 	str	r1, [fp, #-28]	; 0xffffffe4
    6b68:	e50b2020 	str	r2, [fp, #-32]	; 0xffffffe0
    6b6c:	e54b3024 	strb	r3, [fp, #-36]	; 0xffffffdc
    6b70:	e51b3018 	ldr	r3, [fp, #-24]	; 0xffffffe8
    6b74:	e3a02000 	mov	r2, #0
    6b78:	e5832000 	str	r2, [r3]
    6b7c:	e24b2014 	sub	r2, fp, #20
    6b80:	e24b3024 	sub	r3, fp, #36	; 0x24
    6b84:	e1a00002 	mov	r0, r2
    6b88:	e1a01003 	mov	r1, r3
    6b8c:	ebfff940 	bl	5094 <_ZNSaISt19_Sp_counted_deleterIPKcSt8functionIFvS1_EESaIvELN9__gnu_cxx12_Lock_policyE2EEEC1IvEERKSaIT_E@plt>
    6b90:	e3a03000 	mov	r3, #0
    6b94:	e50b3010 	str	r3, [fp, #-16]
    6b98:	e24b3014 	sub	r3, fp, #20
    6b9c:	e1a00003 	mov	r0, r3
    6ba0:	e3a01001 	mov	r1, #1
    6ba4:	ebfff9a0 	bl	522c <_ZNSt16allocator_traitsISaISt19_Sp_counted_deleterIPKcSt8functionIFvS2_EESaIvELN9__gnu_cxx12_Lock_policyE2EEEE8allocateERSA_j@plt>
    6ba8:	e1a03000 	mov	r3, r0
    6bac:	e50b3010 	str	r3, [fp, #-16]
    6bb0:	e51b0020 	ldr	r0, [fp, #-32]	; 0xffffffe0
    6bb4:	ebfff9ff 	bl	53b8 <_ZSt4moveIRSt8functionIFvPKcEEEONSt16remove_referenceIT_E4typeEOS7_@plt>
    6bb8:	e1a04000 	mov	r4, r0
    6bbc:	e24b3024 	sub	r3, fp, #36	; 0x24
    6bc0:	e1a00003 	mov	r0, r3
    6bc4:	ebfff8f6 	bl	4fa4 <_ZSt4moveIRSaIvEEONSt16remove_referenceIT_E4typeEOS3_@plt>
    6bc8:	e1a01000 	mov	r1, r0
    6bcc:	e24b2014 	sub	r2, fp, #20
    6bd0:	e24b301c 	sub	r3, fp, #28
    6bd4:	e58d1000 	str	r1, [sp]
    6bd8:	e1a00002 	mov	r0, r2
    6bdc:	e51b1010 	ldr	r1, [fp, #-16]
    6be0:	e1a02003 	mov	r2, r3
    6be4:	e1a03004 	mov	r3, r4
    6be8:	ebfff950 	bl	5130 <_ZNSt16allocator_traitsISaISt19_Sp_counted_deleterIPKcSt8functionIFvS2_EESaIvELN9__gnu_cxx12_Lock_policyE2EEEE9constructIS9_IRS2_S5_S6_EEEDTcl12_S_constructfp_fp0_spcl7forwardIT0_Efp1_EEERSA_PT_DpOSE_@plt>
    6bec:	e51b3018 	ldr	r3, [fp, #-24]	; 0xffffffe8
    6bf0:	e51b2010 	ldr	r2, [fp, #-16]
    6bf4:	e5832000 	str	r2, [r3]
    6bf8:	e24b3014 	sub	r3, fp, #20
    6bfc:	e1a00003 	mov	r0, r3
    6c00:	ebfff9fe 	bl	5400 <_ZNSaISt19_Sp_counted_deleterIPKcSt8functionIFvS1_EESaIvELN9__gnu_cxx12_Lock_policyE2EEED1Ev@plt>
    6c04:	e51b3018 	ldr	r3, [fp, #-24]	; 0xffffffe8
    6c08:	ea000014 	b	6c60 <_ZNSt14__shared_countILN9__gnu_cxx12_Lock_policyE2EEC1IPKcSt8functionIFvS5_EESaIvEEET_T0_T1_+0x10c>
    6c0c:	ebfff9ec 	bl	53c4 <__cxa_end_catch@plt>
    6c10:	e24b3014 	sub	r3, fp, #20
    6c14:	e1a00003 	mov	r0, r3
    6c18:	ebfff9f8 	bl	5400 <_ZNSaISt19_Sp_counted_deleterIPKcSt8functionIFvS1_EESaIvELN9__gnu_cxx12_Lock_policyE2EEED1Ev@plt>
    6c1c:	ebfff92e 	bl	50dc <__cxa_end_cleanup@plt>
    6c20:	e1a03000 	mov	r3, r0
    6c24:	e1a00003 	mov	r0, r3
    6c28:	ebfff9ee 	bl	53e8 <__cxa_begin_catch@plt>
    6c2c:	e51b301c 	ldr	r3, [fp, #-28]	; 0xffffffe4
    6c30:	e51b0020 	ldr	r0, [fp, #-32]	; 0xffffffe0
    6c34:	e1a01003 	mov	r1, r3
    6c38:	ebfff8d3 	bl	4f8c <_ZNKSt8functionIFvPKcEEclES1_@plt>
    6c3c:	e51b3010 	ldr	r3, [fp, #-16]
    6c40:	e3530000 	cmp	r3, #0
    6c44:	0a000004 	beq	6c5c <_ZNSt14__shared_countILN9__gnu_cxx12_Lock_policyE2EEC1IPKcSt8functionIFvS5_EESaIvEEET_T0_T1_+0x108>
    6c48:	e24b3014 	sub	r3, fp, #20
    6c4c:	e1a00003 	mov	r0, r3
    6c50:	e51b1010 	ldr	r1, [fp, #-16]
    6c54:	e3a02001 	mov	r2, #1
    6c58:	ebfff8e6 	bl	4ff8 <_ZNSt16allocator_traitsISaISt19_Sp_counted_deleterIPKcSt8functionIFvS2_EESaIvELN9__gnu_cxx12_Lock_policyE2EEEE10deallocateERSA_PS9_j@plt>
    6c5c:	ebfff903 	bl	5070 <__cxa_rethrow@plt>
    6c60:	e1a00003 	mov	r0, r3
    6c64:	e24bd008 	sub	sp, fp, #8
    6c68:	e8bd8810 	pop	{r4, fp, pc}

00006c6c <_ZNSt16_Sp_counted_baseILN9__gnu_cxx12_Lock_policyE2EED1Ev>:
    6c6c:	e92d4800 	push	{fp, lr}
    6c70:	e28db004 	add	fp, sp, #4
    6c74:	e24dd008 	sub	sp, sp, #8
    6c78:	e50b0008 	str	r0, [fp, #-8]
    6c7c:	e59f1038 	ldr	r1, [pc, #56]	; 6cbc <_ZNSt16_Sp_counted_baseILN9__gnu_cxx12_Lock_policyE2EED1Ev+0x50>
    6c80:	e08f1001 	add	r1, pc, r1
    6c84:	e51b3008 	ldr	r3, [fp, #-8]
    6c88:	e59f2030 	ldr	r2, [pc, #48]	; 6cc0 <_ZNSt16_Sp_counted_baseILN9__gnu_cxx12_Lock_policyE2EED1Ev+0x54>
    6c8c:	e7912002 	ldr	r2, [r1, r2]
    6c90:	e2822008 	add	r2, r2, #8
    6c94:	e5832000 	str	r2, [r3]
    6c98:	e3a03000 	mov	r3, #0
    6c9c:	e3530000 	cmp	r3, #0
    6ca0:	0a000001 	beq	6cac <_ZNSt16_Sp_counted_baseILN9__gnu_cxx12_Lock_policyE2EED1Ev+0x40>
    6ca4:	e51b0008 	ldr	r0, [fp, #-8]
    6ca8:	ebfff8e4 	bl	5040 <_ZdlPv@plt>
    6cac:	e51b3008 	ldr	r3, [fp, #-8]
    6cb0:	e1a00003 	mov	r0, r3
    6cb4:	e24bd004 	sub	sp, fp, #4
    6cb8:	e8bd8800 	pop	{fp, pc}
    6cbc:	000110ec 	andeq	r1, r1, ip, ror #1
    6cc0:	000001f0 	strdeq	r0, [r0], -r0	; <UNPREDICTABLE>

00006cc4 <_ZNSt16_Sp_counted_baseILN9__gnu_cxx12_Lock_policyE2EED0Ev>:
    6cc4:	e92d4800 	push	{fp, lr}
    6cc8:	e28db004 	add	fp, sp, #4
    6ccc:	e24dd008 	sub	sp, sp, #8
    6cd0:	e50b0008 	str	r0, [fp, #-8]
    6cd4:	e51b0008 	ldr	r0, [fp, #-8]
    6cd8:	ebfff920 	bl	5160 <_ZNSt16_Sp_counted_baseILN9__gnu_cxx12_Lock_policyE2EED1Ev@plt>
    6cdc:	e51b0008 	ldr	r0, [fp, #-8]
    6ce0:	ebfff8d6 	bl	5040 <_ZdlPv@plt>
    6ce4:	e51b3008 	ldr	r3, [fp, #-8]
    6ce8:	e1a00003 	mov	r0, r3
    6cec:	e24bd004 	sub	sp, fp, #4
    6cf0:	e8bd8800 	pop	{fp, pc}

00006cf4 <_ZNSaISt19_Sp_counted_deleterIPKcSt8functionIFvS1_EESaIvELN9__gnu_cxx12_Lock_policyE2EEEC1IvEERKSaIT_E>:
    6cf4:	e92d4800 	push	{fp, lr}
    6cf8:	e28db004 	add	fp, sp, #4
    6cfc:	e24dd008 	sub	sp, sp, #8
    6d00:	e50b0008 	str	r0, [fp, #-8]
    6d04:	e50b100c 	str	r1, [fp, #-12]
    6d08:	e51b0008 	ldr	r0, [fp, #-8]
    6d0c:	ebfff8e6 	bl	50ac <_ZN9__gnu_cxx13new_allocatorISt19_Sp_counted_deleterIPKcSt8functionIFvS3_EESaIvELNS_12_Lock_policyE2EEEC2Ev@plt>
    6d10:	e51b3008 	ldr	r3, [fp, #-8]
    6d14:	e1a00003 	mov	r0, r3
    6d18:	e24bd004 	sub	sp, fp, #4
    6d1c:	e8bd8800 	pop	{fp, pc}

00006d20 <_ZNSaISt19_Sp_counted_deleterIPKcSt8functionIFvS1_EESaIvELN9__gnu_cxx12_Lock_policyE2EEED1Ev>:
    6d20:	e92d4800 	push	{fp, lr}
    6d24:	e28db004 	add	fp, sp, #4
    6d28:	e24dd008 	sub	sp, sp, #8
    6d2c:	e50b0008 	str	r0, [fp, #-8]
    6d30:	e51b0008 	ldr	r0, [fp, #-8]
    6d34:	ebfff936 	bl	5214 <_ZN9__gnu_cxx13new_allocatorISt19_Sp_counted_deleterIPKcSt8functionIFvS3_EESaIvELNS_12_Lock_policyE2EEED2Ev@plt>
    6d38:	e51b3008 	ldr	r3, [fp, #-8]
    6d3c:	e1a00003 	mov	r0, r3
    6d40:	e24bd004 	sub	sp, fp, #4
    6d44:	e8bd8800 	pop	{fp, pc}

00006d48 <_ZNSt16allocator_traitsISaISt19_Sp_counted_deleterIPKcSt8functionIFvS2_EESaIvELN9__gnu_cxx12_Lock_policyE2EEEE8allocateERSA_j>:
    6d48:	e92d4800 	push	{fp, lr}
    6d4c:	e28db004 	add	fp, sp, #4
    6d50:	e24dd008 	sub	sp, sp, #8
    6d54:	e50b0008 	str	r0, [fp, #-8]
    6d58:	e50b100c 	str	r1, [fp, #-12]
    6d5c:	e51b0008 	ldr	r0, [fp, #-8]
    6d60:	e51b100c 	ldr	r1, [fp, #-12]
    6d64:	e3a02000 	mov	r2, #0
    6d68:	ebfff96e 	bl	5328 <_ZN9__gnu_cxx13new_allocatorISt19_Sp_counted_deleterIPKcSt8functionIFvS3_EESaIvELNS_12_Lock_policyE2EEE8allocateEjPKv@plt>
    6d6c:	e1a03000 	mov	r3, r0
    6d70:	e1a00003 	mov	r0, r3
    6d74:	e24bd004 	sub	sp, fp, #4
    6d78:	e8bd8800 	pop	{fp, pc}

00006d7c <_ZNSt16allocator_traitsISaISt19_Sp_counted_deleterIPKcSt8functionIFvS2_EESaIvELN9__gnu_cxx12_Lock_policyE2EEEE9constructIS9_IRS2_S5_S6_EEEDTcl12_S_constructfp_fp0_spcl7forwardIT0_Efp1_EEERSA_PT_DpOSE_>:
    6d7c:	e92d4830 	push	{r4, r5, fp, lr}
    6d80:	e28db00c 	add	fp, sp, #12
    6d84:	e24dd018 	sub	sp, sp, #24
    6d88:	e50b0010 	str	r0, [fp, #-16]
    6d8c:	e50b1014 	str	r1, [fp, #-20]	; 0xffffffec
    6d90:	e50b2018 	str	r2, [fp, #-24]	; 0xffffffe8
    6d94:	e50b301c 	str	r3, [fp, #-28]	; 0xffffffe4
    6d98:	e51b0018 	ldr	r0, [fp, #-24]	; 0xffffffe8
    6d9c:	ebfff8e0 	bl	5124 <_ZSt7forwardIRPKcEOT_RNSt16remove_referenceIS3_E4typeE@plt>
    6da0:	e1a05000 	mov	r5, r0
    6da4:	e51b001c 	ldr	r0, [fp, #-28]	; 0xffffffe4
    6da8:	ebfff9a0 	bl	5430 <_ZSt7forwardISt8functionIFvPKcEEEOT_RNSt16remove_referenceIS5_E4typeE@plt>
    6dac:	e1a04000 	mov	r4, r0
    6db0:	e59b0004 	ldr	r0, [fp, #4]
    6db4:	ebfff943 	bl	52c8 <_ZSt7forwardISaIvEEOT_RNSt16remove_referenceIS1_E4typeE@plt>
    6db8:	e1a03000 	mov	r3, r0
    6dbc:	e58d3000 	str	r3, [sp]
    6dc0:	e51b0010 	ldr	r0, [fp, #-16]
    6dc4:	e51b1014 	ldr	r1, [fp, #-20]	; 0xffffffec
    6dc8:	e1a02005 	mov	r2, r5
    6dcc:	e1a03004 	mov	r3, r4
    6dd0:	ebfff8f4 	bl	51a8 <_ZNSt16allocator_traitsISaISt19_Sp_counted_deleterIPKcSt8functionIFvS2_EESaIvELN9__gnu_cxx12_Lock_policyE2EEEE12_S_constructIS9_IRS2_S5_S6_EEENSt9enable_ifIXsrSt6__and_IINSB_18__construct_helperIT_IDpT0_EE4typeEEE5valueEvE4typeERSA_PSH_DpOSI_@plt>
    6dd4:	e24bd00c 	sub	sp, fp, #12
    6dd8:	e8bd8830 	pop	{r4, r5, fp, pc}

00006ddc <_ZNKSt8functionIFvPKcEEclES1_>:
    6ddc:	e92d4830 	push	{r4, r5, fp, lr}
    6de0:	e28db00c 	add	fp, sp, #12
    6de4:	e24dd008 	sub	sp, sp, #8
    6de8:	e50b0010 	str	r0, [fp, #-16]
    6dec:	e50b1014 	str	r1, [fp, #-20]	; 0xffffffec
    6df0:	e51b3010 	ldr	r3, [fp, #-16]
    6df4:	e1a00003 	mov	r0, r3
    6df8:	ebfff8cf 	bl	513c <_ZNKSt14_Function_base8_M_emptyEv@plt>
    6dfc:	e1a03000 	mov	r3, r0
    6e00:	e3530000 	cmp	r3, #0
    6e04:	0a000000 	beq	6e0c <_ZNKSt8functionIFvPKcEEclES1_+0x30>
    6e08:	ebfff91f 	bl	528c <_ZSt25__throw_bad_function_callv@plt>
    6e0c:	e51b3010 	ldr	r3, [fp, #-16]
    6e10:	e593400c 	ldr	r4, [r3, #12]
    6e14:	e51b5010 	ldr	r5, [fp, #-16]
    6e18:	e24b3014 	sub	r3, fp, #20
    6e1c:	e1a00003 	mov	r0, r3
    6e20:	ebfff8d4 	bl	5178 <_ZSt7forwardIPKcEOT_RNSt16remove_referenceIS2_E4typeE@plt>
    6e24:	e1a03000 	mov	r3, r0
    6e28:	e5933000 	ldr	r3, [r3]
    6e2c:	e1a00005 	mov	r0, r5
    6e30:	e1a01003 	mov	r1, r3
    6e34:	e12fff34 	blx	r4
    6e38:	e24bd00c 	sub	sp, fp, #12
    6e3c:	e8bd8830 	pop	{r4, r5, fp, pc}

00006e40 <_ZNSt16allocator_traitsISaISt19_Sp_counted_deleterIPKcSt8functionIFvS2_EESaIvELN9__gnu_cxx12_Lock_policyE2EEEE10deallocateERSA_PS9_j>:
    6e40:	e92d4800 	push	{fp, lr}
    6e44:	e28db004 	add	fp, sp, #4
    6e48:	e24dd010 	sub	sp, sp, #16
    6e4c:	e50b0008 	str	r0, [fp, #-8]
    6e50:	e50b100c 	str	r1, [fp, #-12]
    6e54:	e50b2010 	str	r2, [fp, #-16]
    6e58:	e51b0008 	ldr	r0, [fp, #-8]
    6e5c:	e51b100c 	ldr	r1, [fp, #-12]
    6e60:	e51b2010 	ldr	r2, [fp, #-16]
    6e64:	ebfff8f3 	bl	5238 <_ZN9__gnu_cxx13new_allocatorISt19_Sp_counted_deleterIPKcSt8functionIFvS3_EESaIvELNS_12_Lock_policyE2EEE10deallocateEPS9_j@plt>
    6e68:	e24bd004 	sub	sp, fp, #4
    6e6c:	e8bd8800 	pop	{fp, pc}

00006e70 <_ZN9__gnu_cxx13new_allocatorISt19_Sp_counted_deleterIPKcSt8functionIFvS3_EESaIvELNS_12_Lock_policyE2EEEC1Ev>:
    6e70:	e52db004 	push	{fp}		; (str fp, [sp, #-4]!)
    6e74:	e28db000 	add	fp, sp, #0
    6e78:	e24dd00c 	sub	sp, sp, #12
    6e7c:	e50b0008 	str	r0, [fp, #-8]
    6e80:	e51b3008 	ldr	r3, [fp, #-8]
    6e84:	e1a00003 	mov	r0, r3
    6e88:	e24bd000 	sub	sp, fp, #0
    6e8c:	e49db004 	pop	{fp}		; (ldr fp, [sp], #4)
    6e90:	e12fff1e 	bx	lr

00006e94 <_ZN9__gnu_cxx13new_allocatorISt19_Sp_counted_deleterIPKcSt8functionIFvS3_EESaIvELNS_12_Lock_policyE2EEED1Ev>:
    6e94:	e52db004 	push	{fp}		; (str fp, [sp, #-4]!)
    6e98:	e28db000 	add	fp, sp, #0
    6e9c:	e24dd00c 	sub	sp, sp, #12
    6ea0:	e50b0008 	str	r0, [fp, #-8]
    6ea4:	e51b3008 	ldr	r3, [fp, #-8]
    6ea8:	e1a00003 	mov	r0, r3
    6eac:	e24bd000 	sub	sp, fp, #0
    6eb0:	e49db004 	pop	{fp}		; (ldr fp, [sp], #4)
    6eb4:	e12fff1e 	bx	lr

00006eb8 <_ZN9__gnu_cxx13new_allocatorISt19_Sp_counted_deleterIPKcSt8functionIFvS3_EESaIvELNS_12_Lock_policyE2EEE8allocateEjPKv>:
    6eb8:	e92d4800 	push	{fp, lr}
    6ebc:	e28db004 	add	fp, sp, #4
    6ec0:	e24dd010 	sub	sp, sp, #16
    6ec4:	e50b0008 	str	r0, [fp, #-8]
    6ec8:	e50b100c 	str	r1, [fp, #-12]
    6ecc:	e50b2010 	str	r2, [fp, #-16]
    6ed0:	e51b0008 	ldr	r0, [fp, #-8]
    6ed4:	ebfff904 	bl	52ec <_ZNK9__gnu_cxx13new_allocatorISt19_Sp_counted_deleterIPKcSt8functionIFvS3_EESaIvELNS_12_Lock_policyE2EEE8max_sizeEv@plt>
    6ed8:	e1a02000 	mov	r2, r0
    6edc:	e51b300c 	ldr	r3, [fp, #-12]
    6ee0:	e1520003 	cmp	r2, r3
    6ee4:	33a03001 	movcc	r3, #1
    6ee8:	23a03000 	movcs	r3, #0
    6eec:	e6ef3073 	uxtb	r3, r3
    6ef0:	e3530000 	cmp	r3, #0
    6ef4:	0a000000 	beq	6efc <_ZN9__gnu_cxx13new_allocatorISt19_Sp_counted_deleterIPKcSt8functionIFvS3_EESaIvELNS_12_Lock_policyE2EEE8allocateEjPKv+0x44>
    6ef8:	ebfff934 	bl	53d0 <_ZSt17__throw_bad_allocv@plt>
    6efc:	e51b300c 	ldr	r3, [fp, #-12]
    6f00:	e1a03283 	lsl	r3, r3, #5
    6f04:	e1a00003 	mov	r0, r3
    6f08:	ebfff8d3 	bl	525c <_Znwj@plt>
    6f0c:	e1a03000 	mov	r3, r0
    6f10:	e1a00003 	mov	r0, r3
    6f14:	e24bd004 	sub	sp, fp, #4
    6f18:	e8bd8800 	pop	{fp, pc}

00006f1c <_ZNSt16allocator_traitsISaISt19_Sp_counted_deleterIPKcSt8functionIFvS2_EESaIvELN9__gnu_cxx12_Lock_policyE2EEEE12_S_constructIS9_IRS2_S5_S6_EEENSt9enable_ifIXsrSt6__and_IINSB_18__construct_helperIT_IDpT0_EE4typeEEE5valueEvE4typeERSA_PSH_DpOSI_>:
    6f1c:	e92d4830 	push	{r4, r5, fp, lr}
    6f20:	e28db00c 	add	fp, sp, #12
    6f24:	e24dd018 	sub	sp, sp, #24
    6f28:	e50b0010 	str	r0, [fp, #-16]
    6f2c:	e50b1014 	str	r1, [fp, #-20]	; 0xffffffec
    6f30:	e50b2018 	str	r2, [fp, #-24]	; 0xffffffe8
    6f34:	e50b301c 	str	r3, [fp, #-28]	; 0xffffffe4
    6f38:	e51b0018 	ldr	r0, [fp, #-24]	; 0xffffffe8
    6f3c:	ebfff878 	bl	5124 <_ZSt7forwardIRPKcEOT_RNSt16remove_referenceIS3_E4typeE@plt>
    6f40:	e1a05000 	mov	r5, r0
    6f44:	e51b001c 	ldr	r0, [fp, #-28]	; 0xffffffe4
    6f48:	ebfff938 	bl	5430 <_ZSt7forwardISt8functionIFvPKcEEEOT_RNSt16remove_referenceIS5_E4typeE@plt>
    6f4c:	e1a04000 	mov	r4, r0
    6f50:	e59b0004 	ldr	r0, [fp, #4]
    6f54:	ebfff8db 	bl	52c8 <_ZSt7forwardISaIvEEOT_RNSt16remove_referenceIS1_E4typeE@plt>
    6f58:	e1a03000 	mov	r3, r0
    6f5c:	e58d3000 	str	r3, [sp]
    6f60:	e51b0010 	ldr	r0, [fp, #-16]
    6f64:	e51b1014 	ldr	r1, [fp, #-20]	; 0xffffffec
    6f68:	e1a02005 	mov	r2, r5
    6f6c:	e1a03004 	mov	r3, r4
    6f70:	ebfff808 	bl	4f98 <_ZN9__gnu_cxx13new_allocatorISt19_Sp_counted_deleterIPKcSt8functionIFvS3_EESaIvELNS_12_Lock_policyE2EEE9constructIS9_IRS3_S6_S7_EEEvPT_DpOT0_@plt>
    6f74:	e24bd00c 	sub	sp, fp, #12
    6f78:	e8bd8830 	pop	{r4, r5, fp, pc}

00006f7c <_ZN9__gnu_cxx13new_allocatorISt19_Sp_counted_deleterIPKcSt8functionIFvS3_EESaIvELNS_12_Lock_policyE2EEE10deallocateEPS9_j>:
    6f7c:	e92d4800 	push	{fp, lr}
    6f80:	e28db004 	add	fp, sp, #4
    6f84:	e24dd010 	sub	sp, sp, #16
    6f88:	e50b0008 	str	r0, [fp, #-8]
    6f8c:	e50b100c 	str	r1, [fp, #-12]
    6f90:	e50b2010 	str	r2, [fp, #-16]
    6f94:	e51b000c 	ldr	r0, [fp, #-12]
    6f98:	ebfff828 	bl	5040 <_ZdlPv@plt>
    6f9c:	e24bd004 	sub	sp, fp, #4
    6fa0:	e8bd8800 	pop	{fp, pc}

00006fa4 <_ZNK9__gnu_cxx13new_allocatorISt19_Sp_counted_deleterIPKcSt8functionIFvS3_EESaIvELNS_12_Lock_policyE2EEE8max_sizeEv>:
    6fa4:	e52db004 	push	{fp}		; (str fp, [sp, #-4]!)
    6fa8:	e28db000 	add	fp, sp, #0
    6fac:	e24dd00c 	sub	sp, sp, #12
    6fb0:	e50b0008 	str	r0, [fp, #-8]
    6fb4:	e3e0333e 	mvn	r3, #-134217728	; 0xf8000000
    6fb8:	e1a00003 	mov	r0, r3
    6fbc:	e24bd000 	sub	sp, fp, #0
    6fc0:	e49db004 	pop	{fp}		; (ldr fp, [sp], #4)
    6fc4:	e12fff1e 	bx	lr

00006fc8 <_ZN9__gnu_cxx13new_allocatorISt19_Sp_counted_deleterIPKcSt8functionIFvS3_EESaIvELNS_12_Lock_policyE2EEE9constructIS9_IRS3_S6_S7_EEEvPT_DpOT0_>:
    6fc8:	e92d4870 	push	{r4, r5, r6, fp, lr}
    6fcc:	e28db010 	add	fp, sp, #16
    6fd0:	e24dd024 	sub	sp, sp, #36	; 0x24
    6fd4:	e50b0028 	str	r0, [fp, #-40]	; 0xffffffd8
    6fd8:	e50b102c 	str	r1, [fp, #-44]	; 0xffffffd4
    6fdc:	e50b2030 	str	r2, [fp, #-48]	; 0xffffffd0
    6fe0:	e50b3034 	str	r3, [fp, #-52]	; 0xffffffcc
    6fe4:	e51b0030 	ldr	r0, [fp, #-48]	; 0xffffffd0
    6fe8:	ebfff84d 	bl	5124 <_ZSt7forwardIRPKcEOT_RNSt16remove_referenceIS3_E4typeE@plt>
    6fec:	e1a03000 	mov	r3, r0
    6ff0:	e5935000 	ldr	r5, [r3]
    6ff4:	e51b0034 	ldr	r0, [fp, #-52]	; 0xffffffcc
    6ff8:	ebfff90c 	bl	5430 <_ZSt7forwardISt8functionIFvPKcEEEOT_RNSt16remove_referenceIS5_E4typeE@plt>
    6ffc:	e1a02000 	mov	r2, r0
    7000:	e24b3024 	sub	r3, fp, #36	; 0x24
    7004:	e1a00003 	mov	r0, r3
    7008:	e1a01002 	mov	r1, r2
    700c:	ebfff8f2 	bl	53dc <_ZNSt8functionIFvPKcEEC1EOS3_@plt>
    7010:	e24b4024 	sub	r4, fp, #36	; 0x24
    7014:	e59b0004 	ldr	r0, [fp, #4]
    7018:	ebfff8aa 	bl	52c8 <_ZSt7forwardISaIvEEOT_RNSt16remove_referenceIS1_E4typeE@plt>
    701c:	e1a06000 	mov	r6, r0
    7020:	e51b302c 	ldr	r3, [fp, #-44]	; 0xffffffd4
    7024:	e3a00020 	mov	r0, #32
    7028:	e1a01003 	mov	r1, r3
    702c:	ebfff836 	bl	510c <_ZnwjPv@plt>
    7030:	e1a03000 	mov	r3, r0
    7034:	e3530000 	cmp	r3, #0
    7038:	0a000004 	beq	7050 <_ZN9__gnu_cxx13new_allocatorISt19_Sp_counted_deleterIPKcSt8functionIFvS3_EESaIvELNS_12_Lock_policyE2EEE9constructIS9_IRS3_S6_S7_EEEvPT_DpOT0_+0x88>
    703c:	e1a00003 	mov	r0, r3
    7040:	e1a01005 	mov	r1, r5
    7044:	e1a02004 	mov	r2, r4
    7048:	e1a03006 	mov	r3, r6
    704c:	ebfff7fe 	bl	504c <_ZNSt19_Sp_counted_deleterIPKcSt8functionIFvS1_EESaIvELN9__gnu_cxx12_Lock_policyE2EEC1ES1_S4_RKS5_@plt>
    7050:	e24b3024 	sub	r3, fp, #36	; 0x24
    7054:	e1a00003 	mov	r0, r3
    7058:	ebfff85b 	bl	51cc <_ZNSt8functionIFvPKcEED1Ev@plt>
    705c:	e24bd010 	sub	sp, fp, #16
    7060:	e8bd8870 	pop	{r4, r5, r6, fp, pc}

00007064 <_ZNSt14_Sp_ebo_helperILi0ESt8functionIFvPKcEELb0EED1Ev>:
    7064:	e92d4800 	push	{fp, lr}
    7068:	e28db004 	add	fp, sp, #4
    706c:	e24dd008 	sub	sp, sp, #8
    7070:	e50b0008 	str	r0, [fp, #-8]
    7074:	e51b3008 	ldr	r3, [fp, #-8]
    7078:	e1a00003 	mov	r0, r3
    707c:	ebfff852 	bl	51cc <_ZNSt8functionIFvPKcEED1Ev@plt>
    7080:	e51b3008 	ldr	r3, [fp, #-8]
    7084:	e1a00003 	mov	r0, r3
    7088:	e24bd004 	sub	sp, fp, #4
    708c:	e8bd8800 	pop	{fp, pc}

00007090 <_ZNSt19_Sp_counted_deleterIPKcSt8functionIFvS1_EESaIvELN9__gnu_cxx12_Lock_policyE2EE5_ImplD1Ev>:
    7090:	e92d4800 	push	{fp, lr}
    7094:	e28db004 	add	fp, sp, #4
    7098:	e24dd008 	sub	sp, sp, #8
    709c:	e50b0008 	str	r0, [fp, #-8]
    70a0:	e51b3008 	ldr	r3, [fp, #-8]
    70a4:	e1a00003 	mov	r0, r3
    70a8:	ebfff892 	bl	52f8 <_ZNSt14_Sp_ebo_helperILi0ESt8functionIFvPKcEELb0EED2Ev@plt>
    70ac:	e51b3008 	ldr	r3, [fp, #-8]
    70b0:	e1a00003 	mov	r0, r3
    70b4:	e24bd004 	sub	sp, fp, #4
    70b8:	e8bd8800 	pop	{fp, pc}

000070bc <_ZNSt19_Sp_counted_deleterIPKcSt8functionIFvS1_EESaIvELN9__gnu_cxx12_Lock_policyE2EEC1ES1_S4_RKS5_>:
    70bc:	e92d4810 	push	{r4, fp, lr}
    70c0:	e28db008 	add	fp, sp, #8
    70c4:	e24dd024 	sub	sp, sp, #36	; 0x24
    70c8:	e50b0020 	str	r0, [fp, #-32]	; 0xffffffe0
    70cc:	e50b1024 	str	r1, [fp, #-36]	; 0xffffffdc
    70d0:	e50b2028 	str	r2, [fp, #-40]	; 0xffffffd8
    70d4:	e50b302c 	str	r3, [fp, #-44]	; 0xffffffd4
    70d8:	e59f406c 	ldr	r4, [pc, #108]	; 714c <_ZNSt19_Sp_counted_deleterIPKcSt8functionIFvS1_EESaIvELN9__gnu_cxx12_Lock_policyE2EEC1ES1_S4_RKS5_+0x90>
    70dc:	e08f4004 	add	r4, pc, r4
    70e0:	e51b3020 	ldr	r3, [fp, #-32]	; 0xffffffe0
    70e4:	e1a00003 	mov	r0, r3
    70e8:	ebfff7ec 	bl	50a0 <_ZNSt16_Sp_counted_baseILN9__gnu_cxx12_Lock_policyE2EEC2Ev@plt>
    70ec:	e51b3020 	ldr	r3, [fp, #-32]	; 0xffffffe0
    70f0:	e59f2058 	ldr	r2, [pc, #88]	; 7150 <_ZNSt19_Sp_counted_deleterIPKcSt8functionIFvS1_EESaIvELN9__gnu_cxx12_Lock_policyE2EEC1ES1_S4_RKS5_+0x94>
    70f4:	e7942002 	ldr	r2, [r4, r2]
    70f8:	e2822008 	add	r2, r2, #8
    70fc:	e5832000 	str	r2, [r3]
    7100:	e51b3020 	ldr	r3, [fp, #-32]	; 0xffffffe0
    7104:	e283400c 	add	r4, r3, #12
    7108:	e24b301c 	sub	r3, fp, #28
    710c:	e1a00003 	mov	r0, r3
    7110:	e51b1028 	ldr	r1, [fp, #-40]	; 0xffffffd8
    7114:	ebfff862 	bl	52a4 <_ZNSt8functionIFvPKcEEC1ERKS3_@plt>
    7118:	e24b301c 	sub	r3, fp, #28
    711c:	e1a00004 	mov	r0, r4
    7120:	e51b1024 	ldr	r1, [fp, #-36]	; 0xffffffdc
    7124:	e1a02003 	mov	r2, r3
    7128:	e51b302c 	ldr	r3, [fp, #-44]	; 0xffffffd4
    712c:	ebfff85f 	bl	52b0 <_ZNSt19_Sp_counted_deleterIPKcSt8functionIFvS1_EESaIvELN9__gnu_cxx12_Lock_policyE2EE5_ImplC1ES1_S4_RKS5_@plt>
    7130:	e24b301c 	sub	r3, fp, #28
    7134:	e1a00003 	mov	r0, r3
    7138:	ebfff823 	bl	51cc <_ZNSt8functionIFvPKcEED1Ev@plt>
    713c:	e51b3020 	ldr	r3, [fp, #-32]	; 0xffffffe0
    7140:	e1a00003 	mov	r0, r3
    7144:	e24bd008 	sub	sp, fp, #8
    7148:	e8bd8810 	pop	{r4, fp, pc}
    714c:	00010c90 	muleq	r1, r0, ip
    7150:	000001d4 	ldrdeq	r0, [r0], -r4

00007154 <_ZNSt11_Mutex_baseILN9__gnu_cxx12_Lock_policyE2EEC1Ev>:
    7154:	e52db004 	push	{fp}		; (str fp, [sp, #-4]!)
    7158:	e28db000 	add	fp, sp, #0
    715c:	e24dd00c 	sub	sp, sp, #12
    7160:	e50b0008 	str	r0, [fp, #-8]
    7164:	e51b3008 	ldr	r3, [fp, #-8]
    7168:	e1a00003 	mov	r0, r3
    716c:	e24bd000 	sub	sp, fp, #0
    7170:	e49db004 	pop	{fp}		; (ldr fp, [sp], #4)
    7174:	e12fff1e 	bx	lr

00007178 <_ZNSt16_Sp_counted_baseILN9__gnu_cxx12_Lock_policyE2EEC1Ev>:
    7178:	e92d4810 	push	{r4, fp, lr}
    717c:	e28db008 	add	fp, sp, #8
    7180:	e24dd00c 	sub	sp, sp, #12
    7184:	e50b0010 	str	r0, [fp, #-16]
    7188:	e59f4044 	ldr	r4, [pc, #68]	; 71d4 <_ZNSt16_Sp_counted_baseILN9__gnu_cxx12_Lock_policyE2EEC1Ev+0x5c>
    718c:	e08f4004 	add	r4, pc, r4
    7190:	e51b0010 	ldr	r0, [fp, #-16]
    7194:	ebfff791 	bl	4fe0 <_ZNSt11_Mutex_baseILN9__gnu_cxx12_Lock_policyE2EEC2Ev@plt>
    7198:	e51b3010 	ldr	r3, [fp, #-16]
    719c:	e59f2034 	ldr	r2, [pc, #52]	; 71d8 <_ZNSt16_Sp_counted_baseILN9__gnu_cxx12_Lock_policyE2EEC1Ev+0x60>
    71a0:	e7942002 	ldr	r2, [r4, r2]
    71a4:	e2822008 	add	r2, r2, #8
    71a8:	e5832000 	str	r2, [r3]
    71ac:	e51b3010 	ldr	r3, [fp, #-16]
    71b0:	e3a02001 	mov	r2, #1
    71b4:	e5832004 	str	r2, [r3, #4]
    71b8:	e51b3010 	ldr	r3, [fp, #-16]
    71bc:	e3a02001 	mov	r2, #1
    71c0:	e5832008 	str	r2, [r3, #8]
    71c4:	e51b3010 	ldr	r3, [fp, #-16]
    71c8:	e1a00003 	mov	r0, r3
    71cc:	e24bd008 	sub	sp, fp, #8
    71d0:	e8bd8810 	pop	{r4, fp, pc}
    71d4:	00010be0 	andeq	r0, r1, r0, ror #23
    71d8:	000001f0 	strdeq	r0, [r0], -r0	; <UNPREDICTABLE>

000071dc <_ZNSt19_Sp_counted_deleterIPKcSt8functionIFvS1_EESaIvELN9__gnu_cxx12_Lock_policyE2EE5_ImplC1ES1_S4_RKS5_>:
    71dc:	e92d4800 	push	{fp, lr}
    71e0:	e28db004 	add	fp, sp, #4
    71e4:	e24dd010 	sub	sp, sp, #16
    71e8:	e50b0008 	str	r0, [fp, #-8]
    71ec:	e50b100c 	str	r1, [fp, #-12]
    71f0:	e50b2010 	str	r2, [fp, #-16]
    71f4:	e50b3014 	str	r3, [fp, #-20]	; 0xffffffec
    71f8:	e51b3008 	ldr	r3, [fp, #-8]
    71fc:	e1a00003 	mov	r0, r3
    7200:	e51b1010 	ldr	r1, [fp, #-16]
    7204:	ebfff82c 	bl	52bc <_ZNSt14_Sp_ebo_helperILi0ESt8functionIFvPKcEELb0EEC2ERKS4_@plt>
    7208:	e51b0008 	ldr	r0, [fp, #-8]
    720c:	e51b1014 	ldr	r1, [fp, #-20]	; 0xffffffec
    7210:	ebfff74e 	bl	4f50 <_ZNSt14_Sp_ebo_helperILi1ESaIvELb1EEC2ERKS0_@plt>
    7214:	e51b3008 	ldr	r3, [fp, #-8]
    7218:	e51b200c 	ldr	r2, [fp, #-12]
    721c:	e5832010 	str	r2, [r3, #16]
    7220:	e51b3008 	ldr	r3, [fp, #-8]
    7224:	e1a00003 	mov	r0, r3
    7228:	e24bd004 	sub	sp, fp, #4
    722c:	e8bd8800 	pop	{fp, pc}

00007230 <_ZNSt14_Sp_ebo_helperILi0ESt8functionIFvPKcEELb0EEC1ERKS4_>:
    7230:	e92d4800 	push	{fp, lr}
    7234:	e28db004 	add	fp, sp, #4
    7238:	e24dd008 	sub	sp, sp, #8
    723c:	e50b0008 	str	r0, [fp, #-8]
    7240:	e50b100c 	str	r1, [fp, #-12]
    7244:	e51b3008 	ldr	r3, [fp, #-8]
    7248:	e1a00003 	mov	r0, r3
    724c:	e51b100c 	ldr	r1, [fp, #-12]
    7250:	ebfff813 	bl	52a4 <_ZNSt8functionIFvPKcEEC1ERKS3_@plt>
    7254:	e51b3008 	ldr	r3, [fp, #-8]
    7258:	e1a00003 	mov	r0, r3
    725c:	e24bd004 	sub	sp, fp, #4
    7260:	e8bd8800 	pop	{fp, pc}

00007264 <_ZNSt14_Sp_ebo_helperILi1ESaIvELb1EEC1ERKS0_>:
    7264:	e52db004 	push	{fp}		; (str fp, [sp, #-4]!)
    7268:	e28db000 	add	fp, sp, #0
    726c:	e24dd00c 	sub	sp, sp, #12
    7270:	e50b0008 	str	r0, [fp, #-8]
    7274:	e50b100c 	str	r1, [fp, #-12]
    7278:	e51b3008 	ldr	r3, [fp, #-8]
    727c:	e1a00003 	mov	r0, r3
    7280:	e24bd000 	sub	sp, fp, #0
    7284:	e49db004 	pop	{fp}		; (ldr fp, [sp], #4)
    7288:	e12fff1e 	bx	lr

0000728c <_ZNSt19_Sp_counted_deleterIPKcSt8functionIFvS1_EESaIvELN9__gnu_cxx12_Lock_policyE2EED1Ev>:
    728c:	e92d4800 	push	{fp, lr}
    7290:	e28db004 	add	fp, sp, #4
    7294:	e24dd008 	sub	sp, sp, #8
    7298:	e50b0008 	str	r0, [fp, #-8]
    729c:	e59f1054 	ldr	r1, [pc, #84]	; 72f8 <_ZNSt19_Sp_counted_deleterIPKcSt8functionIFvS1_EESaIvELN9__gnu_cxx12_Lock_policyE2EED1Ev+0x6c>
    72a0:	e08f1001 	add	r1, pc, r1
    72a4:	e51b3008 	ldr	r3, [fp, #-8]
    72a8:	e59f204c 	ldr	r2, [pc, #76]	; 72fc <_ZNSt19_Sp_counted_deleterIPKcSt8functionIFvS1_EESaIvELN9__gnu_cxx12_Lock_policyE2EED1Ev+0x70>
    72ac:	e7912002 	ldr	r2, [r1, r2]
    72b0:	e2822008 	add	r2, r2, #8
    72b4:	e5832000 	str	r2, [r3]
    72b8:	e51b3008 	ldr	r3, [fp, #-8]
    72bc:	e283300c 	add	r3, r3, #12
    72c0:	e1a00003 	mov	r0, r3
    72c4:	ebfff71e 	bl	4f44 <_ZNSt19_Sp_counted_deleterIPKcSt8functionIFvS1_EESaIvELN9__gnu_cxx12_Lock_policyE2EE5_ImplD1Ev@plt>
    72c8:	e51b3008 	ldr	r3, [fp, #-8]
    72cc:	e1a00003 	mov	r0, r3
    72d0:	ebfff80e 	bl	5310 <_ZNSt16_Sp_counted_baseILN9__gnu_cxx12_Lock_policyE2EED2Ev@plt>
    72d4:	e3a03000 	mov	r3, #0
    72d8:	e3530000 	cmp	r3, #0
    72dc:	0a000001 	beq	72e8 <_ZNSt19_Sp_counted_deleterIPKcSt8functionIFvS1_EESaIvELN9__gnu_cxx12_Lock_policyE2EED1Ev+0x5c>
    72e0:	e51b0008 	ldr	r0, [fp, #-8]
    72e4:	ebfff755 	bl	5040 <_ZdlPv@plt>
    72e8:	e51b3008 	ldr	r3, [fp, #-8]
    72ec:	e1a00003 	mov	r0, r3
    72f0:	e24bd004 	sub	sp, fp, #4
    72f4:	e8bd8800 	pop	{fp, pc}
    72f8:	00010acc 	andeq	r0, r1, ip, asr #21
    72fc:	000001d4 	ldrdeq	r0, [r0], -r4

00007300 <_ZNSt19_Sp_counted_deleterIPKcSt8functionIFvS1_EESaIvELN9__gnu_cxx12_Lock_policyE2EED0Ev>:
    7300:	e92d4800 	push	{fp, lr}
    7304:	e28db004 	add	fp, sp, #4
    7308:	e24dd008 	sub	sp, sp, #8
    730c:	e50b0008 	str	r0, [fp, #-8]
    7310:	e51b0008 	ldr	r0, [fp, #-8]
    7314:	ebfff77f 	bl	5118 <_ZNSt19_Sp_counted_deleterIPKcSt8functionIFvS1_EESaIvELN9__gnu_cxx12_Lock_policyE2EED1Ev@plt>
    7318:	e51b0008 	ldr	r0, [fp, #-8]
    731c:	ebfff747 	bl	5040 <_ZdlPv@plt>
    7320:	e51b3008 	ldr	r3, [fp, #-8]
    7324:	e1a00003 	mov	r0, r3
    7328:	e24bd004 	sub	sp, fp, #4
    732c:	e8bd8800 	pop	{fp, pc}

00007330 <_ZNSt19_Sp_counted_deleterIPKcSt8functionIFvS1_EESaIvELN9__gnu_cxx12_Lock_policyE2EE10_M_disposeEv>:
    7330:	e92d4800 	push	{fp, lr}
    7334:	e28db004 	add	fp, sp, #4
    7338:	e24dd008 	sub	sp, sp, #8
    733c:	e50b0008 	str	r0, [fp, #-8]
    7340:	e51b3008 	ldr	r3, [fp, #-8]
    7344:	e283300c 	add	r3, r3, #12
    7348:	e1a00003 	mov	r0, r3
    734c:	ebfff810 	bl	5394 <_ZNSt19_Sp_counted_deleterIPKcSt8functionIFvS1_EESaIvELN9__gnu_cxx12_Lock_policyE2EE5_Impl6_M_delEv@plt>
    7350:	e1a02000 	mov	r2, r0
    7354:	e51b3008 	ldr	r3, [fp, #-8]
    7358:	e593301c 	ldr	r3, [r3, #28]
    735c:	e1a00002 	mov	r0, r2
    7360:	e1a01003 	mov	r1, r3
    7364:	ebfff708 	bl	4f8c <_ZNKSt8functionIFvPKcEEclES1_@plt>
    7368:	e24bd004 	sub	sp, fp, #4
    736c:	e8bd8800 	pop	{fp, pc}

00007370 <_ZNSt19_Sp_counted_deleterIPKcSt8functionIFvS1_EESaIvELN9__gnu_cxx12_Lock_policyE2EE10_M_destroyEv>:
    7370:	e92d4800 	push	{fp, lr}
    7374:	e28db004 	add	fp, sp, #4
    7378:	e24dd010 	sub	sp, sp, #16
    737c:	e50b0010 	str	r0, [fp, #-16]
    7380:	e51b3010 	ldr	r3, [fp, #-16]
    7384:	e283300c 	add	r3, r3, #12
    7388:	e1a00003 	mov	r0, r3
    738c:	ebfff734 	bl	5064 <_ZNSt19_Sp_counted_deleterIPKcSt8functionIFvS1_EESaIvELN9__gnu_cxx12_Lock_policyE2EE5_Impl8_M_allocEv@plt>
    7390:	e1a02000 	mov	r2, r0
    7394:	e24b3008 	sub	r3, fp, #8
    7398:	e1a00003 	mov	r0, r3
    739c:	e1a01002 	mov	r1, r2
    73a0:	ebfff73b 	bl	5094 <_ZNSaISt19_Sp_counted_deleterIPKcSt8functionIFvS1_EESaIvELN9__gnu_cxx12_Lock_policyE2EEEC1IvEERKSaIT_E@plt>
    73a4:	e24b3008 	sub	r3, fp, #8
    73a8:	e1a00003 	mov	r0, r3
    73ac:	e51b1010 	ldr	r1, [fp, #-16]
    73b0:	ebfff7df 	bl	5334 <_ZNSt16allocator_traitsISaISt19_Sp_counted_deleterIPKcSt8functionIFvS2_EESaIvELN9__gnu_cxx12_Lock_policyE2EEEE7destroyIS9_EEvRSA_PT_@plt>
    73b4:	e24b3008 	sub	r3, fp, #8
    73b8:	e1a00003 	mov	r0, r3
    73bc:	e51b1010 	ldr	r1, [fp, #-16]
    73c0:	e3a02001 	mov	r2, #1
    73c4:	ebfff70b 	bl	4ff8 <_ZNSt16allocator_traitsISaISt19_Sp_counted_deleterIPKcSt8functionIFvS2_EESaIvELN9__gnu_cxx12_Lock_policyE2EEEE10deallocateERSA_PS9_j@plt>
    73c8:	e24b3008 	sub	r3, fp, #8
    73cc:	e1a00003 	mov	r0, r3
    73d0:	ebfff80a 	bl	5400 <_ZNSaISt19_Sp_counted_deleterIPKcSt8functionIFvS1_EESaIvELN9__gnu_cxx12_Lock_policyE2EEED1Ev@plt>
    73d4:	e24bd004 	sub	sp, fp, #4
    73d8:	e8bd8800 	pop	{fp, pc}

000073dc <_ZNSt19_Sp_counted_deleterIPKcSt8functionIFvS1_EESaIvELN9__gnu_cxx12_Lock_policyE2EE14_M_get_deleterERKSt9type_info>:
    73dc:	e92d4800 	push	{fp, lr}
    73e0:	e28db004 	add	fp, sp, #4
    73e4:	e24dd008 	sub	sp, sp, #8
    73e8:	e50b0008 	str	r0, [fp, #-8]
    73ec:	e50b100c 	str	r1, [fp, #-12]
    73f0:	e59f2048 	ldr	r2, [pc, #72]	; 7440 <_ZNSt19_Sp_counted_deleterIPKcSt8functionIFvS1_EESaIvELN9__gnu_cxx12_Lock_policyE2EE14_M_get_deleterERKSt9type_info+0x64>
    73f4:	e08f2002 	add	r2, pc, r2
    73f8:	e51b000c 	ldr	r0, [fp, #-12]
    73fc:	e59f3040 	ldr	r3, [pc, #64]	; 7444 <_ZNSt19_Sp_counted_deleterIPKcSt8functionIFvS1_EESaIvELN9__gnu_cxx12_Lock_policyE2EE14_M_get_deleterERKSt9type_info+0x68>
    7400:	e7923003 	ldr	r3, [r2, r3]
    7404:	e1a01003 	mov	r1, r3
    7408:	ebfff796 	bl	5268 <_ZNKSt9type_infoeqERKS_@plt>
    740c:	e1a03000 	mov	r3, r0
    7410:	e3530000 	cmp	r3, #0
    7414:	0a000005 	beq	7430 <_ZNSt19_Sp_counted_deleterIPKcSt8functionIFvS1_EESaIvELN9__gnu_cxx12_Lock_policyE2EE14_M_get_deleterERKSt9type_info+0x54>
    7418:	e51b3008 	ldr	r3, [fp, #-8]
    741c:	e283300c 	add	r3, r3, #12
    7420:	e1a00003 	mov	r0, r3
    7424:	ebfff7da 	bl	5394 <_ZNSt19_Sp_counted_deleterIPKcSt8functionIFvS1_EESaIvELN9__gnu_cxx12_Lock_policyE2EE5_Impl6_M_delEv@plt>
    7428:	e1a03000 	mov	r3, r0
    742c:	ea000000 	b	7434 <_ZNSt19_Sp_counted_deleterIPKcSt8functionIFvS1_EESaIvELN9__gnu_cxx12_Lock_policyE2EE14_M_get_deleterERKSt9type_info+0x58>
    7430:	e3a03000 	mov	r3, #0
    7434:	e1a00003 	mov	r0, r3
    7438:	e24bd004 	sub	sp, fp, #4
    743c:	e8bd8800 	pop	{fp, pc}
    7440:	00010978 	andeq	r0, r1, r8, ror r9
    7444:	000001f4 	strdeq	r0, [r0], -r4

00007448 <_ZNSt19_Sp_counted_deleterIPKcSt8functionIFvS1_EESaIvELN9__gnu_cxx12_Lock_policyE2EE5_Impl6_M_delEv>:
    7448:	e92d4800 	push	{fp, lr}
    744c:	e28db004 	add	fp, sp, #4
    7450:	e24dd008 	sub	sp, sp, #8
    7454:	e50b0008 	str	r0, [fp, #-8]
    7458:	e51b3008 	ldr	r3, [fp, #-8]
    745c:	e1a00003 	mov	r0, r3
    7460:	ebfff717 	bl	50c4 <_ZNSt14_Sp_ebo_helperILi0ESt8functionIFvPKcEELb0EE6_S_getERS5_@plt>
    7464:	e1a03000 	mov	r3, r0
    7468:	e1a00003 	mov	r0, r3
    746c:	e24bd004 	sub	sp, fp, #4
    7470:	e8bd8800 	pop	{fp, pc}

00007474 <_ZNSt19_Sp_counted_deleterIPKcSt8functionIFvS1_EESaIvELN9__gnu_cxx12_Lock_policyE2EE5_Impl8_M_allocEv>:
    7474:	e92d4800 	push	{fp, lr}
    7478:	e28db004 	add	fp, sp, #4
    747c:	e24dd008 	sub	sp, sp, #8
    7480:	e50b0008 	str	r0, [fp, #-8]
    7484:	e51b0008 	ldr	r0, [fp, #-8]
    7488:	ebfff749 	bl	51b4 <_ZNSt14_Sp_ebo_helperILi1ESaIvELb1EE6_S_getERS1_@plt>
    748c:	e1a03000 	mov	r3, r0
    7490:	e1a00003 	mov	r0, r3
    7494:	e24bd004 	sub	sp, fp, #4
    7498:	e8bd8800 	pop	{fp, pc}

0000749c <_ZNSt16allocator_traitsISaISt19_Sp_counted_deleterIPKcSt8functionIFvS2_EESaIvELN9__gnu_cxx12_Lock_policyE2EEEE7destroyIS9_EEvRSA_PT_>:
    749c:	e92d4800 	push	{fp, lr}
    74a0:	e28db004 	add	fp, sp, #4
    74a4:	e24dd008 	sub	sp, sp, #8
    74a8:	e50b0008 	str	r0, [fp, #-8]
    74ac:	e50b100c 	str	r1, [fp, #-12]
    74b0:	e51b0008 	ldr	r0, [fp, #-8]
    74b4:	e51b100c 	ldr	r1, [fp, #-12]
    74b8:	ebfff7e2 	bl	5448 <_ZNSt16allocator_traitsISaISt19_Sp_counted_deleterIPKcSt8functionIFvS2_EESaIvELN9__gnu_cxx12_Lock_policyE2EEEE10_S_destroyIS9_EENSt9enable_ifIXsrSt6__and_IINSB_16__destroy_helperIT_E4typeEEE5valueEvE4typeERSA_PSG_@plt>
    74bc:	e24bd004 	sub	sp, fp, #4
    74c0:	e8bd8800 	pop	{fp, pc}

000074c4 <_ZNSt14_Sp_ebo_helperILi0ESt8functionIFvPKcEELb0EE6_S_getERS5_>:
    74c4:	e52db004 	push	{fp}		; (str fp, [sp, #-4]!)
    74c8:	e28db000 	add	fp, sp, #0
    74cc:	e24dd00c 	sub	sp, sp, #12
    74d0:	e50b0008 	str	r0, [fp, #-8]
    74d4:	e51b3008 	ldr	r3, [fp, #-8]
    74d8:	e1a00003 	mov	r0, r3
    74dc:	e24bd000 	sub	sp, fp, #0
    74e0:	e49db004 	pop	{fp}		; (ldr fp, [sp], #4)
    74e4:	e12fff1e 	bx	lr

000074e8 <_ZNSt14_Sp_ebo_helperILi1ESaIvELb1EE6_S_getERS1_>:
    74e8:	e52db004 	push	{fp}		; (str fp, [sp, #-4]!)
    74ec:	e28db000 	add	fp, sp, #0
    74f0:	e24dd00c 	sub	sp, sp, #12
    74f4:	e50b0008 	str	r0, [fp, #-8]
    74f8:	e51b3008 	ldr	r3, [fp, #-8]
    74fc:	e1a00003 	mov	r0, r3
    7500:	e24bd000 	sub	sp, fp, #0
    7504:	e49db004 	pop	{fp}		; (ldr fp, [sp], #4)
    7508:	e12fff1e 	bx	lr

0000750c <_ZNSt16allocator_traitsISaISt19_Sp_counted_deleterIPKcSt8functionIFvS2_EESaIvELN9__gnu_cxx12_Lock_policyE2EEEE10_S_destroyIS9_EENSt9enable_ifIXsrSt6__and_IINSB_16__destroy_helperIT_E4typeEEE5valueEvE4typeERSA_PSG_>:
    750c:	e92d4800 	push	{fp, lr}
    7510:	e28db004 	add	fp, sp, #4
    7514:	e24dd008 	sub	sp, sp, #8
    7518:	e50b0008 	str	r0, [fp, #-8]
    751c:	e50b100c 	str	r1, [fp, #-12]
    7520:	e51b0008 	ldr	r0, [fp, #-8]
    7524:	e51b100c 	ldr	r1, [fp, #-12]
    7528:	ebfff694 	bl	4f80 <_ZN9__gnu_cxx13new_allocatorISt19_Sp_counted_deleterIPKcSt8functionIFvS3_EESaIvELNS_12_Lock_policyE2EEE7destroyIS9_EEvPT_@plt>
    752c:	e24bd004 	sub	sp, fp, #4
    7530:	e8bd8800 	pop	{fp, pc}

00007534 <_ZN9__gnu_cxx13new_allocatorISt19_Sp_counted_deleterIPKcSt8functionIFvS3_EESaIvELNS_12_Lock_policyE2EEE7destroyIS9_EEvPT_>:
    7534:	e92d4800 	push	{fp, lr}
    7538:	e28db004 	add	fp, sp, #4
    753c:	e24dd008 	sub	sp, sp, #8
    7540:	e50b0008 	str	r0, [fp, #-8]
    7544:	e50b100c 	str	r1, [fp, #-12]
    7548:	e51b000c 	ldr	r0, [fp, #-12]
    754c:	ebfff6f1 	bl	5118 <_ZNSt19_Sp_counted_deleterIPKcSt8functionIFvS1_EESaIvELN9__gnu_cxx12_Lock_policyE2EED1Ev@plt>
    7550:	e24bd004 	sub	sp, fp, #4
    7554:	e8bd8800 	pop	{fp, pc}

Disassembly of section .fini:

00007558 <_fini>:
    7558:	e92d4008 	push	{r3, lr}
    755c:	e8bd8008 	pop	{r3, pc}
